
kernel.elf:     file format elf32-littlearm


Disassembly of section .text:

00008000 <reset_handler-0x4>:
    8000:	e51ff004 	ldr	pc, [pc, #-4]	; 8004 <reset_handler>

00008004 <reset_handler>:
    8004:	00008008 	andeq	r8, r0, r8

00008008 <reset>:
    8008:	e3a00902 	mov	r0, #32768	; 0x8000
    800c:	e3a01000 	mov	r1, #0
    8010:	e8b003fc 	ldm	r0!, {r2, r3, r4, r5, r6, r7, r8, r9}
    8014:	e8a103fc 	stmia	r1!, {r2, r3, r4, r5, r6, r7, r8, r9}
    8018:	e8b003fc 	ldm	r0!, {r2, r3, r4, r5, r6, r7, r8, r9}
    801c:	e8a103fc 	stmia	r1!, {r2, r3, r4, r5, r6, r7, r8, r9}
    8020:	e3a000d2 	mov	r0, #210	; 0xd2
    8024:	e121f000 	msr	CPSR_c, r0
    8028:	e3a0d902 	mov	sp, #32768	; 0x8000
    802c:	e3a000d1 	mov	r0, #209	; 0xd1
    8030:	e121f000 	msr	CPSR_c, r0
    8034:	e3a0d901 	mov	sp, #16384	; 0x4000
    8038:	e3a000d3 	mov	r0, #211	; 0xd3
    803c:	e121f000 	msr	CPSR_c, r0
    8040:	e3a0d302 	mov	sp, #134217728	; 0x8000000
    8044:	eb000029 	bl	80f0 <notmain>

00008048 <PUT32>:
    8048:	e5801000 	str	r1, [r0]
    804c:	e12fff1e 	bx	lr

00008050 <PUT16>:
    8050:	e1c010b0 	strh	r1, [r0]
    8054:	e12fff1e 	bx	lr

00008058 <PUT8>:
    8058:	e5c01000 	strb	r1, [r0]
    805c:	e12fff1e 	bx	lr

00008060 <GET32>:
    8060:	e5900000 	ldr	r0, [r0]
    8064:	e12fff1e 	bx	lr

00008068 <GETPC>:
    8068:	e1a0000e 	mov	r0, lr
    806c:	e12fff1e 	bx	lr

00008070 <BRANCHTO>:
    8070:	e12fff10 	bx	r0

00008074 <dummy>:
    8074:	e12fff1e 	bx	lr

00008078 <funcA>:
    8078:	e52de004 	push	{lr}		; (str lr, [sp, #-4]!)
    807c:	e24dd00c 	sub	sp, sp, #12
    8080:	e3a03000 	mov	r3, #0
    8084:	e58d3004 	str	r3, [sp, #4]
    8088:	ea000003 	b	809c <funcA+0x24>
    808c:	e59d3004 	ldr	r3, [sp, #4]
    8090:	e2833001 	add	r3, r3, #1
    8094:	e58d3004 	str	r3, [sp, #4]
    8098:	eb000171 	bl	8664 <yield>
    809c:	e59d3004 	ldr	r3, [sp, #4]
    80a0:	e3530002 	cmp	r3, #2
    80a4:	dafffff8 	ble	808c <funcA+0x14>
    80a8:	eb0001c9 	bl	87d4 <killme>
    80ac:	e28dd00c 	add	sp, sp, #12
    80b0:	e8bd8000 	pop	{pc}

000080b4 <funcB>:
    80b4:	e52de004 	push	{lr}		; (str lr, [sp, #-4]!)
    80b8:	e24dd00c 	sub	sp, sp, #12
    80bc:	e3a03001 	mov	r3, #1
    80c0:	e58d3004 	str	r3, [sp, #4]
    80c4:	ea000003 	b	80d8 <funcB+0x24>
    80c8:	e59d3004 	ldr	r3, [sp, #4]
    80cc:	e2833002 	add	r3, r3, #2
    80d0:	e58d3004 	str	r3, [sp, #4]
    80d4:	eb000162 	bl	8664 <yield>
    80d8:	e59d3004 	ldr	r3, [sp, #4]
    80dc:	e3530004 	cmp	r3, #4
    80e0:	dafffff8 	ble	80c8 <funcB+0x14>
    80e4:	eb0001ba 	bl	87d4 <killme>
    80e8:	e28dd00c 	add	sp, sp, #12
    80ec:	e8bd8000 	pop	{pc}

000080f0 <notmain>:
    80f0:	e92d4008 	push	{r3, lr}
    80f4:	e59f0020 	ldr	r0, [pc, #32]	; 811c <notmain+0x2c>
    80f8:	e3a01000 	mov	r1, #0
    80fc:	eb00012f 	bl	85c0 <create_process>
    8100:	e59f0018 	ldr	r0, [pc, #24]	; 8120 <notmain+0x30>
    8104:	e3a01000 	mov	r1, #0
    8108:	eb00012c 	bl	85c0 <create_process>
    810c:	eb0001b8 	bl	87f4 <start_scheduler>
    8110:	e3a03000 	mov	r3, #0
    8114:	e1a00003 	mov	r0, r3
    8118:	e8bd8008 	pop	{r3, pc}
    811c:	00008078 	andeq	r8, r0, r8, ror r0
    8120:	000080b4 	strheq	r8, [r0], -r4

00008124 <enable_timer_irq>:
    8124:	e92d4008 	push	{r3, lr}
    8128:	e59f0008 	ldr	r0, [pc, #8]	; 8138 <enable_timer_irq+0x14>
    812c:	e3a01002 	mov	r1, #2
    8130:	ebffffc4 	bl	8048 <PUT32>
    8134:	e8bd8008 	pop	{r3, pc}
    8138:	20003000 	andcs	r3, r0, r0

0000813c <disable_timer_irq>:
    813c:	e92d4008 	push	{r3, lr}
    8140:	e59f0008 	ldr	r0, [pc, #8]	; 8150 <disable_timer_irq+0x14>
    8144:	e3e01002 	mvn	r1, #2
    8148:	ebffffbe 	bl	8048 <PUT32>
    814c:	e8bd8008 	pop	{r3, pc}
    8150:	20003000 	andcs	r3, r0, r0

00008154 <set_next_tick_and_enable_timer_irq>:
    8154:	e52de004 	push	{lr}		; (str lr, [sp, #-4]!)
    8158:	e24dd00c 	sub	sp, sp, #12
    815c:	e59f0028 	ldr	r0, [pc, #40]	; 818c <set_next_tick_and_enable_timer_irq+0x38>
    8160:	ebffffbe 	bl	8060 <GET32>
    8164:	e58d0004 	str	r0, [sp, #4]
    8168:	e59d3004 	ldr	r3, [sp, #4]
    816c:	e2833702 	add	r3, r3, #524288	; 0x80000
    8170:	e58d3004 	str	r3, [sp, #4]
    8174:	e59f0014 	ldr	r0, [pc, #20]	; 8190 <set_next_tick_and_enable_timer_irq+0x3c>
    8178:	e59d1004 	ldr	r1, [sp, #4]
    817c:	ebffffb1 	bl	8048 <PUT32>
    8180:	ebffffe7 	bl	8124 <enable_timer_irq>
    8184:	e28dd00c 	add	sp, sp, #12
    8188:	e8bd8000 	pop	{pc}
    818c:	20003004 	andcs	r3, r0, r4
    8190:	20003010 	andcs	r3, r0, r0, lsl r0

00008194 <led_off>:
    8194:	e92d4008 	push	{r3, lr}
    8198:	e59f0008 	ldr	r0, [pc, #8]	; 81a8 <led_off+0x14>
    819c:	e3a01801 	mov	r1, #65536	; 0x10000
    81a0:	ebffffa8 	bl	8048 <PUT32>
    81a4:	e8bd8008 	pop	{r3, pc}
    81a8:	2020001c 	eorcs	r0, r0, ip, lsl r0

000081ac <led_on>:
    81ac:	e92d4008 	push	{r3, lr}
    81b0:	e59f0008 	ldr	r0, [pc, #8]	; 81c0 <led_on+0x14>
    81b4:	e3a01801 	mov	r1, #65536	; 0x10000
    81b8:	ebffffa2 	bl	8048 <PUT32>
    81bc:	e8bd8008 	pop	{r3, pc}
    81c0:	20200028 	eorcs	r0, r0, r8, lsr #32

000081c4 <init_hw>:
    81c4:	e52de004 	push	{lr}		; (str lr, [sp, #-4]!)
    81c8:	e24dd00c 	sub	sp, sp, #12
    81cc:	e59f0070 	ldr	r0, [pc, #112]	; 8244 <init_hw+0x80>
    81d0:	ebffffa2 	bl	8060 <GET32>
    81d4:	e58d0004 	str	r0, [sp, #4]
    81d8:	e59d3004 	ldr	r3, [sp, #4]
    81dc:	e3c33707 	bic	r3, r3, #1835008	; 0x1c0000
    81e0:	e58d3004 	str	r3, [sp, #4]
    81e4:	e59d3004 	ldr	r3, [sp, #4]
    81e8:	e3833701 	orr	r3, r3, #262144	; 0x40000
    81ec:	e58d3004 	str	r3, [sp, #4]
    81f0:	e59f004c 	ldr	r0, [pc, #76]	; 8244 <init_hw+0x80>
    81f4:	e59d1004 	ldr	r1, [sp, #4]
    81f8:	ebffff92 	bl	8048 <PUT32>
    81fc:	e59f0044 	ldr	r0, [pc, #68]	; 8248 <init_hw+0x84>
    8200:	e3a01801 	mov	r1, #65536	; 0x10000
    8204:	ebffff8f 	bl	8048 <PUT32>
    8208:	e59f003c 	ldr	r0, [pc, #60]	; 824c <init_hw+0x88>
    820c:	ebffff93 	bl	8060 <GET32>
    8210:	e58d0000 	str	r0, [sp]
    8214:	e59d3000 	ldr	r3, [sp]
    8218:	e2833702 	add	r3, r3, #524288	; 0x80000
    821c:	e58d3000 	str	r3, [sp]
    8220:	e59f0028 	ldr	r0, [pc, #40]	; 8250 <init_hw+0x8c>
    8224:	e59d1000 	ldr	r1, [sp]
    8228:	ebffff86 	bl	8048 <PUT32>
    822c:	ebffffbc 	bl	8124 <enable_timer_irq>
    8230:	e59f001c 	ldr	r0, [pc, #28]	; 8254 <init_hw+0x90>
    8234:	e3a01002 	mov	r1, #2
    8238:	ebffff82 	bl	8048 <PUT32>
    823c:	e28dd00c 	add	sp, sp, #12
    8240:	e8bd8000 	pop	{pc}
    8244:	20200004 	eorcs	r0, r0, r4
    8248:	2020001c 	eorcs	r0, r0, ip, lsl r0
    824c:	20003004 	andcs	r3, r0, r4
    8250:	20003010 	andcs	r3, r0, r0, lsl r0
    8254:	2000b210 	andcs	fp, r0, r0, lsl r2

00008258 <AllocateMemory>:
    8258:	e52de004 	push	{lr}		; (str lr, [sp, #-4]!)
    825c:	e24dd01c 	sub	sp, sp, #28
    8260:	e58d0004 	str	r0, [sp, #4]
    8264:	e59f312c 	ldr	r3, [pc, #300]	; 8398 <AllocateMemory+0x140>
    8268:	e58d3014 	str	r3, [sp, #20]
    826c:	e59d3004 	ldr	r3, [sp, #4]
    8270:	e3530000 	cmp	r3, #0
    8274:	1a000001 	bne	8280 <AllocateMemory+0x28>
    8278:	e3a03102 	mov	r3, #-2147483648	; 0x80000000
    827c:	ea000042 	b	838c <AllocateMemory+0x134>
    8280:	e59f3114 	ldr	r3, [pc, #276]	; 839c <AllocateMemory+0x144>
    8284:	e5933000 	ldr	r3, [r3]
    8288:	e3530000 	cmp	r3, #0
    828c:	1a000004 	bne	82a4 <AllocateMemory+0x4c>
    8290:	e59d0014 	ldr	r0, [sp, #20]
    8294:	eb0000a0 	bl	851c <createInitialHeader>
    8298:	e59f30fc 	ldr	r3, [pc, #252]	; 839c <AllocateMemory+0x144>
    829c:	e3a02001 	mov	r2, #1
    82a0:	e5832000 	str	r2, [r3]
    82a4:	e3a03000 	mov	r3, #0
    82a8:	e58d3010 	str	r3, [sp, #16]
    82ac:	ea000025 	b	8348 <AllocateMemory+0xf0>
    82b0:	e59d3014 	ldr	r3, [sp, #20]
    82b4:	e2833004 	add	r3, r3, #4
    82b8:	e5933000 	ldr	r3, [r3]
    82bc:	e3530000 	cmp	r3, #0
    82c0:	1a00001d 	bne	833c <AllocateMemory+0xe4>
    82c4:	e59d3014 	ldr	r3, [sp, #20]
    82c8:	e5932000 	ldr	r2, [r3]
    82cc:	e59d3014 	ldr	r3, [sp, #20]
    82d0:	e0633002 	rsb	r3, r3, r2
    82d4:	e2433002 	sub	r3, r3, #2
    82d8:	e58d300c 	str	r3, [sp, #12]
    82dc:	e59d2004 	ldr	r2, [sp, #4]
    82e0:	e59d300c 	ldr	r3, [sp, #12]
    82e4:	e1520003 	cmp	r2, r3
    82e8:	8a000013 	bhi	833c <AllocateMemory+0xe4>
    82ec:	e3a03001 	mov	r3, #1
    82f0:	e58d3010 	str	r3, [sp, #16]
    82f4:	e59d2004 	ldr	r2, [sp, #4]
    82f8:	e59d300c 	ldr	r3, [sp, #12]
    82fc:	e0633002 	rsb	r3, r3, r2
    8300:	e3530003 	cmp	r3, #3
    8304:	9a000017 	bls	8368 <AllocateMemory+0x110>
    8308:	e59d3014 	ldr	r3, [sp, #20]
    830c:	e5933000 	ldr	r3, [r3]
    8310:	e2433004 	sub	r3, r3, #4
    8314:	e59d2004 	ldr	r2, [sp, #4]
    8318:	e2822002 	add	r2, r2, #2
    831c:	e1a02102 	lsl	r2, r2, #2
    8320:	e59d1014 	ldr	r1, [sp, #20]
    8324:	e0812002 	add	r2, r1, r2
    8328:	e5832000 	str	r2, [r3]
    832c:	e59d0014 	ldr	r0, [sp, #20]
    8330:	e59d1004 	ldr	r1, [sp, #4]
    8334:	eb00004f 	bl	8478 <createHeader>
    8338:	ea00000a 	b	8368 <AllocateMemory+0x110>
    833c:	e59d3014 	ldr	r3, [sp, #20]
    8340:	e5933000 	ldr	r3, [r3]
    8344:	e58d3014 	str	r3, [sp, #20]
    8348:	e59d3014 	ldr	r3, [sp, #20]
    834c:	e5933000 	ldr	r3, [r3]
    8350:	e3530000 	cmp	r3, #0
    8354:	0a000004 	beq	836c <AllocateMemory+0x114>
    8358:	e59d3010 	ldr	r3, [sp, #16]
    835c:	e3530000 	cmp	r3, #0
    8360:	0affffd2 	beq	82b0 <AllocateMemory+0x58>
    8364:	ea000000 	b	836c <AllocateMemory+0x114>
    8368:	e1a00000 	nop			; (mov r0, r0)
    836c:	e59d3010 	ldr	r3, [sp, #16]
    8370:	e3530000 	cmp	r3, #0
    8374:	1a000002 	bne	8384 <AllocateMemory+0x12c>
    8378:	e59d0014 	ldr	r0, [sp, #20]
    837c:	e59d1004 	ldr	r1, [sp, #4]
    8380:	eb00003c 	bl	8478 <createHeader>
    8384:	e59d3014 	ldr	r3, [sp, #20]
    8388:	e2833008 	add	r3, r3, #8
    838c:	e1a00003 	mov	r0, r3
    8390:	e28dd01c 	add	sp, sp, #28
    8394:	e8bd8000 	pop	{pc}
    8398:	00009034 	andeq	r9, r0, r4, lsr r0
    839c:	00009030 	andeq	r9, r0, r0, lsr r0

000083a0 <FreeAllocatedMemory>:
    83a0:	e52de004 	push	{lr}		; (str lr, [sp, #-4]!)
    83a4:	e24dd00c 	sub	sp, sp, #12
    83a8:	e58d0004 	str	r0, [sp, #4]
    83ac:	e59d3004 	ldr	r3, [sp, #4]
    83b0:	e2433004 	sub	r3, r3, #4
    83b4:	e5932000 	ldr	r2, [r3]
    83b8:	e59f3034 	ldr	r3, [pc, #52]	; 83f4 <FreeAllocatedMemory+0x54>
    83bc:	e1520003 	cmp	r2, r3
    83c0:	1a000007 	bne	83e4 <FreeAllocatedMemory+0x44>
    83c4:	e59d0004 	ldr	r0, [sp, #4]
    83c8:	eb00000a 	bl	83f8 <concatenateFreeBlocks>
    83cc:	e59d3004 	ldr	r3, [sp, #4]
    83d0:	e2433004 	sub	r3, r3, #4
    83d4:	e3a02000 	mov	r2, #0
    83d8:	e5832000 	str	r2, [r3]
    83dc:	e3a03001 	mov	r3, #1
    83e0:	ea000000 	b	83e8 <FreeAllocatedMemory+0x48>
    83e4:	e3a03000 	mov	r3, #0
    83e8:	e1a00003 	mov	r0, r3
    83ec:	e28dd00c 	add	sp, sp, #12
    83f0:	e8bd8000 	pop	{pc}
    83f4:	44414d66 	strbmi	r4, [r1], #-3430	; 0xd66

000083f8 <concatenateFreeBlocks>:
    83f8:	e24dd008 	sub	sp, sp, #8
    83fc:	e58d0004 	str	r0, [sp, #4]
    8400:	ea000015 	b	845c <concatenateFreeBlocks+0x64>
    8404:	e59d3004 	ldr	r3, [sp, #4]
    8408:	e5933000 	ldr	r3, [r3]
    840c:	e5933000 	ldr	r3, [r3]
    8410:	e3530000 	cmp	r3, #0
    8414:	1a000003 	bne	8428 <concatenateFreeBlocks+0x30>
    8418:	e59d3004 	ldr	r3, [sp, #4]
    841c:	e3a02000 	mov	r2, #0
    8420:	e5832000 	str	r2, [r3]
    8424:	ea000011 	b	8470 <concatenateFreeBlocks+0x78>
    8428:	e59d3004 	ldr	r3, [sp, #4]
    842c:	e5933000 	ldr	r3, [r3]
    8430:	e5932000 	ldr	r2, [r3]
    8434:	e59d3004 	ldr	r3, [sp, #4]
    8438:	e5832000 	str	r2, [r3]
    843c:	e59d3004 	ldr	r3, [sp, #4]
    8440:	e5933000 	ldr	r3, [r3]
    8444:	e5933000 	ldr	r3, [r3]
    8448:	e59d2004 	ldr	r2, [sp, #4]
    844c:	e5922000 	ldr	r2, [r2]
    8450:	e2422004 	sub	r2, r2, #4
    8454:	e5922000 	ldr	r2, [r2]
    8458:	e5832000 	str	r2, [r3]
    845c:	e59d3004 	ldr	r3, [sp, #4]
    8460:	e5933000 	ldr	r3, [r3]
    8464:	e5933000 	ldr	r3, [r3]
    8468:	e3730001 	cmn	r3, #1
    846c:	0affffe4 	beq	8404 <concatenateFreeBlocks+0xc>
    8470:	e28dd008 	add	sp, sp, #8
    8474:	e12fff1e 	bx	lr

00008478 <createHeader>:
    8478:	e24dd008 	sub	sp, sp, #8
    847c:	e58d0004 	str	r0, [sp, #4]
    8480:	e58d1000 	str	r1, [sp]
    8484:	e59d3000 	ldr	r3, [sp]
    8488:	e2833002 	add	r3, r3, #2
    848c:	e1a03103 	lsl	r3, r3, #2
    8490:	e59d2004 	ldr	r2, [sp, #4]
    8494:	e0823003 	add	r3, r2, r3
    8498:	e59d2004 	ldr	r2, [sp, #4]
    849c:	e2422004 	sub	r2, r2, #4
    84a0:	e5832000 	str	r2, [r3]
    84a4:	e59d3000 	ldr	r3, [sp]
    84a8:	e2833003 	add	r3, r3, #3
    84ac:	e1a03103 	lsl	r3, r3, #2
    84b0:	e59d2004 	ldr	r2, [sp, #4]
    84b4:	e0823003 	add	r3, r2, r3
    84b8:	e59d2004 	ldr	r2, [sp, #4]
    84bc:	e5922000 	ldr	r2, [r2]
    84c0:	e5832000 	str	r2, [r3]
    84c4:	e59d3000 	ldr	r3, [sp]
    84c8:	e2833004 	add	r3, r3, #4
    84cc:	e1a03103 	lsl	r3, r3, #2
    84d0:	e59d2004 	ldr	r2, [sp, #4]
    84d4:	e0823003 	add	r3, r2, r3
    84d8:	e3a02000 	mov	r2, #0
    84dc:	e5832000 	str	r2, [r3]
    84e0:	e59d3000 	ldr	r3, [sp]
    84e4:	e2833003 	add	r3, r3, #3
    84e8:	e1a03103 	lsl	r3, r3, #2
    84ec:	e59d2004 	ldr	r2, [sp, #4]
    84f0:	e0823003 	add	r3, r2, r3
    84f4:	e1a02003 	mov	r2, r3
    84f8:	e59d3004 	ldr	r3, [sp, #4]
    84fc:	e5832000 	str	r2, [r3]
    8500:	e59d3004 	ldr	r3, [sp, #4]
    8504:	e2833004 	add	r3, r3, #4
    8508:	e59f2008 	ldr	r2, [pc, #8]	; 8518 <createHeader+0xa0>
    850c:	e5832000 	str	r2, [r3]
    8510:	e28dd008 	add	sp, sp, #8
    8514:	e12fff1e 	bx	lr
    8518:	44414d66 	strbmi	r4, [r1], #-3430	; 0xd66

0000851c <createInitialHeader>:
    851c:	e24dd008 	sub	sp, sp, #8
    8520:	e58d0004 	str	r0, [sp, #4]
    8524:	e59d3004 	ldr	r3, [sp, #4]
    8528:	e2433004 	sub	r3, r3, #4
    852c:	e3a02000 	mov	r2, #0
    8530:	e5832000 	str	r2, [r3]
    8534:	e59d3004 	ldr	r3, [sp, #4]
    8538:	e3a02000 	mov	r2, #0
    853c:	e5832000 	str	r2, [r3]
    8540:	e59d3004 	ldr	r3, [sp, #4]
    8544:	e2833004 	add	r3, r3, #4
    8548:	e3a02000 	mov	r2, #0
    854c:	e5832000 	str	r2, [r3]
    8550:	e28dd008 	add	sp, sp, #8
    8554:	e12fff1e 	bx	lr

00008558 <init_pcb>:
    8558:	e52de004 	push	{lr}		; (str lr, [sp, #-4]!)
    855c:	e24dd014 	sub	sp, sp, #20
    8560:	e58d000c 	str	r0, [sp, #12]
    8564:	e58d1008 	str	r1, [sp, #8]
    8568:	e58d2004 	str	r2, [sp, #4]
    856c:	e58d3000 	str	r3, [sp]
    8570:	e59d300c 	ldr	r3, [sp, #12]
    8574:	e59d2008 	ldr	r2, [sp, #8]
    8578:	e5832004 	str	r2, [r3, #4]
    857c:	e59d0004 	ldr	r0, [sp, #4]
    8580:	ebffff34 	bl	8258 <AllocateMemory>
    8584:	e1a02000 	mov	r2, r0
    8588:	e59d3004 	ldr	r3, [sp, #4]
    858c:	e2433107 	sub	r3, r3, #-1073741823	; 0xc0000001
    8590:	e1a03203 	lsl	r3, r3, #4
    8594:	e0822003 	add	r2, r2, r3
    8598:	e59d300c 	ldr	r3, [sp, #12]
    859c:	e5832000 	str	r2, [r3]
    85a0:	e59d300c 	ldr	r3, [sp, #12]
    85a4:	e3a02003 	mov	r2, #3
    85a8:	e5c32008 	strb	r2, [r3, #8]
    85ac:	e59d300c 	ldr	r3, [sp, #12]
    85b0:	e59d2000 	ldr	r2, [sp]
    85b4:	e583200c 	str	r2, [r3, #12]
    85b8:	e28dd014 	add	sp, sp, #20
    85bc:	e8bd8000 	pop	{pc}

000085c0 <create_process>:
    85c0:	e52de004 	push	{lr}		; (str lr, [sp, #-4]!)
    85c4:	e24dd014 	sub	sp, sp, #20
    85c8:	e58d0004 	str	r0, [sp, #4]
    85cc:	e58d1000 	str	r1, [sp]
    85d0:	e3a00014 	mov	r0, #20
    85d4:	ebffff1f 	bl	8258 <AllocateMemory>
    85d8:	e1a03000 	mov	r3, r0
    85dc:	e58d300c 	str	r3, [sp, #12]
    85e0:	e59f3078 	ldr	r3, [pc, #120]	; 8660 <create_process+0xa0>
    85e4:	e5933004 	ldr	r3, [r3, #4]
    85e8:	e3530000 	cmp	r3, #0
    85ec:	1a000002 	bne	85fc <create_process+0x3c>
    85f0:	e59f3068 	ldr	r3, [pc, #104]	; 8660 <create_process+0xa0>
    85f4:	e59d200c 	ldr	r2, [sp, #12]
    85f8:	e5832004 	str	r2, [r3, #4]
    85fc:	e59f305c 	ldr	r3, [pc, #92]	; 8660 <create_process+0xa0>
    8600:	e5933004 	ldr	r3, [r3, #4]
    8604:	e59d200c 	ldr	r2, [sp, #12]
    8608:	e5832010 	str	r2, [r3, #16]
    860c:	e59f304c 	ldr	r3, [pc, #76]	; 8660 <create_process+0xa0>
    8610:	e59d200c 	ldr	r2, [sp, #12]
    8614:	e5832004 	str	r2, [r3, #4]
    8618:	e59f3040 	ldr	r3, [pc, #64]	; 8660 <create_process+0xa0>
    861c:	e5933000 	ldr	r3, [r3]
    8620:	e3530000 	cmp	r3, #0
    8624:	1a000002 	bne	8634 <create_process+0x74>
    8628:	e59f3030 	ldr	r3, [pc, #48]	; 8660 <create_process+0xa0>
    862c:	e59d200c 	ldr	r2, [sp, #12]
    8630:	e5832000 	str	r2, [r3]
    8634:	e59f3024 	ldr	r3, [pc, #36]	; 8660 <create_process+0xa0>
    8638:	e5932000 	ldr	r2, [r3]
    863c:	e59d300c 	ldr	r3, [sp, #12]
    8640:	e5832010 	str	r2, [r3, #16]
    8644:	e59d000c 	ldr	r0, [sp, #12]
    8648:	e59d1004 	ldr	r1, [sp, #4]
    864c:	e3a02b01 	mov	r2, #1024	; 0x400
    8650:	e59d3000 	ldr	r3, [sp]
    8654:	ebffffbf 	bl	8558 <init_pcb>
    8658:	e28dd014 	add	sp, sp, #20
    865c:	e8bd8000 	pop	{pc}
    8660:	00009024 	andeq	r9, r0, r4, lsr #32

00008664 <yield>:
    8664:	e92d5fff 	push	{r0, r1, r2, r3, r4, r5, r6, r7, r8, r9, sl, fp, ip, lr}
    8668:	e59f315c 	ldr	r3, [pc, #348]	; 87cc <yield+0x168>
    866c:	e5933000 	ldr	r3, [r3]
    8670:	e1a0200d 	mov	r2, sp
    8674:	e5832000 	str	r2, [r3]
    8678:	e59f314c 	ldr	r3, [pc, #332]	; 87cc <yield+0x168>
    867c:	e5933000 	ldr	r3, [r3]
    8680:	e5932010 	ldr	r2, [r3, #16]
    8684:	e59f3140 	ldr	r3, [pc, #320]	; 87cc <yield+0x168>
    8688:	e5832000 	str	r2, [r3]
    868c:	e59f3138 	ldr	r3, [pc, #312]	; 87cc <yield+0x168>
    8690:	e5933000 	ldr	r3, [r3]
    8694:	e5d33008 	ldrb	r3, [r3, #8]
    8698:	e3530003 	cmp	r3, #3
    869c:	1a00000c 	bne	86d4 <yield+0x70>
    86a0:	e59f3124 	ldr	r3, [pc, #292]	; 87cc <yield+0x168>
    86a4:	e5933000 	ldr	r3, [r3]
    86a8:	e5933000 	ldr	r3, [r3]
    86ac:	e1a0d003 	mov	sp, r3
    86b0:	e59f3114 	ldr	r3, [pc, #276]	; 87cc <yield+0x168>
    86b4:	e5933000 	ldr	r3, [r3]
    86b8:	e5933004 	ldr	r3, [r3, #4]
    86bc:	e1a0e003 	mov	lr, r3
    86c0:	e59f3104 	ldr	r3, [pc, #260]	; 87cc <yield+0x168>
    86c4:	e5933000 	ldr	r3, [r3]
    86c8:	e3a02001 	mov	r2, #1
    86cc:	e5c32008 	strb	r2, [r3, #8]
    86d0:	ea000009 	b	86fc <yield+0x98>
    86d4:	e59f30f0 	ldr	r3, [pc, #240]	; 87cc <yield+0x168>
    86d8:	e5933000 	ldr	r3, [r3]
    86dc:	e5d33008 	ldrb	r3, [r3, #8]
    86e0:	e3530001 	cmp	r3, #1
    86e4:	1a000004 	bne	86fc <yield+0x98>
    86e8:	e59f30dc 	ldr	r3, [pc, #220]	; 87cc <yield+0x168>
    86ec:	e5933000 	ldr	r3, [r3]
    86f0:	e5933000 	ldr	r3, [r3]
    86f4:	e1a0d003 	mov	sp, r3
    86f8:	e8bd5fff 	pop	{r0, r1, r2, r3, r4, r5, r6, r7, r8, r9, sl, fp, ip, lr}
    86fc:	e59f30c8 	ldr	r3, [pc, #200]	; 87cc <yield+0x168>
    8700:	e5933000 	ldr	r3, [r3]
    8704:	e5933010 	ldr	r3, [r3, #16]
    8708:	e5d33008 	ldrb	r3, [r3, #8]
    870c:	e3530004 	cmp	r3, #4
    8710:	1a00002c 	bne	87c8 <yield+0x164>
    8714:	e59f30b4 	ldr	r3, [pc, #180]	; 87d0 <yield+0x16c>
    8718:	e5932004 	ldr	r2, [r3, #4]
    871c:	e59f30a8 	ldr	r3, [pc, #168]	; 87cc <yield+0x168>
    8720:	e5933000 	ldr	r3, [r3]
    8724:	e5933010 	ldr	r3, [r3, #16]
    8728:	e1520003 	cmp	r2, r3
    872c:	1a00000b 	bne	8760 <yield+0xfc>
    8730:	e59f3094 	ldr	r3, [pc, #148]	; 87cc <yield+0x168>
    8734:	e5933000 	ldr	r3, [r3]
    8738:	e5933010 	ldr	r3, [r3, #16]
    873c:	e5932010 	ldr	r2, [r3, #16]
    8740:	e59f3088 	ldr	r3, [pc, #136]	; 87d0 <yield+0x16c>
    8744:	e5832004 	str	r2, [r3, #4]
    8748:	e59f307c 	ldr	r3, [pc, #124]	; 87cc <yield+0x168>
    874c:	e5933000 	ldr	r3, [r3]
    8750:	e59f2078 	ldr	r2, [pc, #120]	; 87d0 <yield+0x16c>
    8754:	e5922004 	ldr	r2, [r2, #4]
    8758:	e5832010 	str	r2, [r3, #16]
    875c:	ea000019 	b	87c8 <yield+0x164>
    8760:	e59f3068 	ldr	r3, [pc, #104]	; 87d0 <yield+0x16c>
    8764:	e5932000 	ldr	r2, [r3]
    8768:	e59f305c 	ldr	r3, [pc, #92]	; 87cc <yield+0x168>
    876c:	e5933000 	ldr	r3, [r3]
    8770:	e5933010 	ldr	r3, [r3, #16]
    8774:	e1520003 	cmp	r2, r3
    8778:	1a00000b 	bne	87ac <yield+0x148>
    877c:	e59f3048 	ldr	r3, [pc, #72]	; 87cc <yield+0x168>
    8780:	e5933000 	ldr	r3, [r3]
    8784:	e5933010 	ldr	r3, [r3, #16]
    8788:	e5932010 	ldr	r2, [r3, #16]
    878c:	e59f303c 	ldr	r3, [pc, #60]	; 87d0 <yield+0x16c>
    8790:	e5832000 	str	r2, [r3]
    8794:	e59f3034 	ldr	r3, [pc, #52]	; 87d0 <yield+0x16c>
    8798:	e5933004 	ldr	r3, [r3, #4]
    879c:	e59f202c 	ldr	r2, [pc, #44]	; 87d0 <yield+0x16c>
    87a0:	e5922000 	ldr	r2, [r2]
    87a4:	e5832010 	str	r2, [r3, #16]
    87a8:	ea000006 	b	87c8 <yield+0x164>
    87ac:	e59f3018 	ldr	r3, [pc, #24]	; 87cc <yield+0x168>
    87b0:	e5933000 	ldr	r3, [r3]
    87b4:	e59f2010 	ldr	r2, [pc, #16]	; 87cc <yield+0x168>
    87b8:	e5922000 	ldr	r2, [r2]
    87bc:	e5922010 	ldr	r2, [r2, #16]
    87c0:	e5922010 	ldr	r2, [r2, #16]
    87c4:	e5832010 	str	r2, [r3, #16]
    87c8:	e12fff1e 	bx	lr
    87cc:	0000902c 	andeq	r9, r0, ip, lsr #32
    87d0:	00009024 	andeq	r9, r0, r4, lsr #32

000087d4 <killme>:
    87d4:	e92d4008 	push	{r3, lr}
    87d8:	e59f3010 	ldr	r3, [pc, #16]	; 87f0 <killme+0x1c>
    87dc:	e5933000 	ldr	r3, [r3]
    87e0:	e3a02004 	mov	r2, #4
    87e4:	e5c32008 	strb	r2, [r3, #8]
    87e8:	ebffff9d 	bl	8664 <yield>
    87ec:	e8bd8008 	pop	{r3, pc}
    87f0:	0000902c 	andeq	r9, r0, ip, lsr #32

000087f4 <start_scheduler>:
    87f4:	e52de004 	push	{lr}		; (str lr, [sp, #-4]!)
    87f8:	e24dd01c 	sub	sp, sp, #28
    87fc:	e28d3004 	add	r3, sp, #4
    8800:	e1a00003 	mov	r0, r3
    8804:	e3a01000 	mov	r1, #0
    8808:	e3a02b01 	mov	r2, #1024	; 0x400
    880c:	e3a03000 	mov	r3, #0
    8810:	ebffff50 	bl	8558 <init_pcb>
    8814:	e3a03004 	mov	r3, #4
    8818:	e5cd300c 	strb	r3, [sp, #12]
    881c:	e59f301c 	ldr	r3, [pc, #28]	; 8840 <start_scheduler+0x4c>
    8820:	e5933000 	ldr	r3, [r3]
    8824:	e58d3014 	str	r3, [sp, #20]
    8828:	e59f3014 	ldr	r3, [pc, #20]	; 8844 <start_scheduler+0x50>
    882c:	e28d2004 	add	r2, sp, #4
    8830:	e5832000 	str	r2, [r3]
    8834:	ebffff8a 	bl	8664 <yield>
    8838:	e28dd01c 	add	sp, sp, #28
    883c:	e8bd8000 	pop	{pc}
    8840:	00009024 	andeq	r9, r0, r4, lsr #32
    8844:	0000902c 	andeq	r9, r0, ip, lsr #32

Disassembly of section .bss:

00009000 <bss>:
    9000:	00000000 	andeq	r0, r0, r0

00009004 <pList>:
	...

0000900c <current_process>:
    900c:	00000000 	andeq	r0, r0, r0

00009010 <next_running>:
    9010:	00000000 	andeq	r0, r0, r0

00009014 <pList>:
	...

0000901c <current_process>:
    901c:	00000000 	andeq	r0, r0, r0

00009020 <next_running>:
    9020:	00000000 	andeq	r0, r0, r0

00009024 <pList>:
	...

0000902c <current_process>:
    902c:	00000000 	andeq	r0, r0, r0

00009030 <isInitialised>:
    9030:	00000000 	andeq	r0, r0, r0

00009034 <heap>:
	...

Disassembly of section .ARM.attributes:

00000000 <.ARM.attributes>:
   0:	00003141 	andeq	r3, r0, r1, asr #2
   4:	61656100 	cmnvs	r5, r0, lsl #2
   8:	01006962 	tsteq	r0, r2, ror #18
   c:	00000027 	andeq	r0, r0, r7, lsr #32
  10:	005a3605 	subseq	r3, sl, r5, lsl #12
  14:	01080706 	tsteq	r8, r6, lsl #14
  18:	020a0109 	andeq	r0, sl, #1073741826	; 0x40000002
  1c:	01140412 	tsteq	r4, r2, lsl r4
  20:	03170115 	tsteq	r7, #1073741829	; 0x40000005
  24:	011a0118 	tsteq	sl, r8, lsl r1
  28:	011c031b 	tsteq	ip, fp, lsl r3
  2c:	012c0122 	teqeq	ip, r2, lsr #2
  30:	Address 0x0000000000000030 is out of bounds.


Disassembly of section .comment:

00000000 <.comment>:
   0:	3a434347 	bcc	10d0d24 <_bss_end+0x10c6d24>
   4:	4e472820 	cdpmi	8, 4, cr2, cr7, cr0, {1}
   8:	34202955 	strtcc	r2, [r0], #-2389	; 0x955
   c:	312e372e 	teqcc	lr, lr, lsr #14
	...

Disassembly of section .debug_line:

00000000 <.debug_line>:
   0:	0000004f 	andeq	r0, r0, pc, asr #32
   4:	00200002 	eoreq	r0, r0, r2
   8:	01020000 	mrseq	r0, (UNDEF: 2)
   c:	000d0efb 	strdeq	r0, [sp], -fp
  10:	01010101 	tsteq	r1, r1, lsl #2
  14:	01000000 	mrseq	r0, (UNDEF: 0)
  18:	00010000 	andeq	r0, r1, r0
  1c:	74636576 	strbtvc	r6, [r3], #-1398	; 0x576
  20:	2e73726f 	cdpcs	2, 7, cr7, cr3, cr15, {3}
  24:	00000073 	andeq	r0, r0, r3, ror r0
  28:	05000000 	streq	r0, [r0, #-0]
  2c:	00800002 	addeq	r0, r0, r2
  30:	2f4d1900 	svccs	0x004d1900
  34:	2f2f2f2f 	svccs	0x002f2f2f
  38:	312f2f31 	teqcc	pc, r1, lsr pc	; <UNPREDICTABLE>
  3c:	2f312f2f 	svccs	0x00312f2f
  40:	2f32342f 	svccs	0x0032342f
  44:	2f322f32 	svccs	0x00322f32
  48:	2f322f32 	svccs	0x00322f32
  4c:	02023232 	andeq	r3, r2, #536870915	; 0x20000003
  50:	cc010100 	stfgts	f0, [r1], {-0}
  54:	02000000 	andeq	r0, r0, #0
  58:	00009a00 	andeq	r9, r0, r0, lsl #20
  5c:	fb010200 	blx	40866 <_bss_end+0x36866>
  60:	01000d0e 	tsteq	r0, lr, lsl #26
  64:	00010101 	andeq	r0, r1, r1, lsl #2
  68:	00010000 	andeq	r0, r1, r0
  6c:	6f2f0100 	svcvs	0x002f0100
  70:	342f7470 	strtcc	r7, [pc], #-1136	; 78 <_start-0x7f88>
  74:	4c2d6669 	stcmi	6, cr6, [sp], #-420	; 0xfffffe5c
  78:	72612f53 	rsbvc	r2, r1, #332	; 0x14c
  7c:	6f6e2d6d 	svcvs	0x006e2d6d
  80:	652d656e 	strvs	r6, [sp, #-1390]!	; 0x56e
  84:	2d696261 	sfmcs	f6, 2, [r9, #-388]!	; 0xfffffe7c
  88:	2f636367 	svccs	0x00636367
  8c:	2f62696c 	svccs	0x0062696c
  90:	2f636367 	svccs	0x00636367
  94:	2d6d7261 	sfmcs	f7, 2, [sp, #-388]!	; 0xfffffe7c
  98:	656e6f6e 	strbvs	r6, [lr, #-3950]!	; 0xf6e
  9c:	6261652d 	rsbvs	r6, r1, #188743680	; 0xb400000
  a0:	2e342f69 	cdpcs	15, 3, cr2, cr4, cr9, {3}
  a4:	2f312e37 	svccs	0x00312e37
  a8:	6c636e69 	stclvs	14, cr6, [r3], #-420	; 0xfffffe5c
  ac:	00656475 	rsbeq	r6, r5, r5, ror r4
  b0:	746f6e00 	strbtvc	r6, [pc], #-3584	; b8 <_start-0x7f48>
  b4:	6e69616d 	powvsez	f6, f1, #5.0
  b8:	0000632e 	andeq	r6, r0, lr, lsr #6
  bc:	74730000 	ldrbtvc	r0, [r3], #-0
  c0:	746e6964 	strbtvc	r6, [lr], #-2404	; 0x964
  c4:	6363672d 	cmnvs	r3, #11796480	; 0xb40000
  c8:	0100682e 	tsteq	r0, lr, lsr #16
  cc:	72700000 	rsbsvc	r0, r0, #0
  d0:	7365636f 	cmnvc	r5, #-1140850687	; 0xbc000001
  d4:	00682e73 	rsbeq	r2, r8, r3, ror lr
  d8:	73000000 	movwvc	r0, #0
  dc:	64656863 	strbtvs	r6, [r5], #-2147	; 0x863
  e0:	0000682e 	andeq	r6, r0, lr, lsr #16
  e4:	69640000 	stmdbvs	r4!, {}^	; <UNPREDICTABLE>
  e8:	74617073 	strbtvc	r7, [r1], #-115	; 0x73
  ec:	72656863 	rsbvc	r6, r5, #6488064	; 0x630000
  f0:	0000682e 	andeq	r6, r0, lr, lsr #16
  f4:	00000000 	andeq	r0, r0, r0
  f8:	80780205 	rsbshi	r0, r8, r5, lsl #4
  fc:	1a030000 	bne	c0104 <_bss_end+0xb6104>
 100:	2f4b4b01 	svccs	0x004b4b01
 104:	04020067 	streq	r0, [r2], #-103	; 0x67
 108:	2f6a2c01 	svccs	0x006a2c01
 10c:	2f4b4b4d 	svccs	0x004b4b4d
 110:	04020067 	streq	r0, [r2], #-103	; 0x67
 114:	2f6a2c01 	svccs	0x006a2c01
 118:	6867364f 	stmdavs	r7!, {r0, r1, r2, r3, r6, r9, sl, ip, sp}^
 11c:	08022f30 	stmdaeq	r2, {r4, r5, r8, r9, sl, fp, sp}
 120:	4f010100 	svcmi	0x00010100
 124:	02000000 	andeq	r0, r0, #0
 128:	00001b00 	andeq	r1, r0, r0, lsl #22
 12c:	fb010200 	blx	40936 <_bss_end+0x36936>
 130:	01000d0e 	tsteq	r0, lr, lsl #26
 134:	00010101 	andeq	r0, r1, r1, lsl #2
 138:	00010000 	andeq	r0, r1, r0
 13c:	68000100 	stmdavs	r0, {r8}
 140:	00632e77 	rsbeq	r2, r3, r7, ror lr
 144:	00000000 	andeq	r0, r0, r0
 148:	24020500 	strcs	r0, [r2], #-1280	; 0x500
 14c:	03000081 	movweq	r0, #129	; 0x81
 150:	67300117 			; <UNDEFINED> instruction: 0x67300117
 154:	4f67304e 	svcmi	0x0067304e
 158:	6867674b 	stmdavs	r7!, {r0, r1, r3, r6, r8, r9, sl, sp, lr}^
 15c:	8209032f 	andhi	r0, r9, #-1140850688	; 0xbc000000
 160:	2f4e672f 	svccs	0x004e672f
 164:	674f5167 	strbvs	r5, [pc, -r7, ror #2]
 168:	69676767 	stmdbvs	r7!, {r0, r1, r2, r5, r6, r8, r9, sl, sp, lr}^
 16c:	316a6767 	cmncc	sl, r7, ror #14
 170:	000e0267 	andeq	r0, lr, r7, ror #4
 174:	00ef0101 	rsceq	r0, pc, r1, lsl #2
 178:	00020000 	andeq	r0, r2, r0
 17c:	0000008d 	andeq	r0, r0, sp, lsl #1
 180:	0efb0102 	cdpeq	1, 15, cr0, cr11, cr2, {0}
 184:	0101000d 	tsteq	r1, sp
 188:	00000101 	andeq	r0, r0, r1, lsl #2
 18c:	00000100 	andeq	r0, r0, r0, lsl #2
 190:	706f2f01 	rsbvc	r2, pc, r1, lsl #30
 194:	69342f74 	ldmdbvs	r4!, {r2, r4, r5, r6, r8, r9, sl, fp, sp}
 198:	534c2d66 	movtpl	r2, #52582	; 0xcd66
 19c:	6d72612f 	ldfvse	f6, [r2, #-188]!	; 0xffffff44
 1a0:	6e6f6e2d 	cdpvs	14, 6, cr6, cr15, cr13, {1}
 1a4:	61652d65 	cmnvs	r5, r5, ror #26
 1a8:	672d6962 	strvs	r6, [sp, -r2, ror #18]!
 1ac:	6c2f6363 	stcvs	3, cr6, [pc], #-396	; 28 <_start-0x7fd8>
 1b0:	672f6269 	strvs	r6, [pc, -r9, ror #4]!
 1b4:	612f6363 	teqvs	pc, r3, ror #6
 1b8:	6e2d6d72 	mcrvs	13, 1, r6, cr13, cr2, {3}
 1bc:	2d656e6f 	stclcs	14, cr6, [r5, #-444]!	; 0xfffffe44
 1c0:	69626165 	stmdbvs	r2!, {r0, r2, r5, r6, r8, sp, lr}^
 1c4:	372e342f 	strcc	r3, [lr, -pc, lsr #8]!
 1c8:	692f312e 	stmdbvs	pc!, {r1, r2, r3, r5, r8, ip, sp}	; <UNPREDICTABLE>
 1cc:	756c636e 	strbvc	r6, [ip, #-878]!	; 0x36e
 1d0:	00006564 	andeq	r6, r0, r4, ror #10
 1d4:	6f6c6c61 	svcvs	0x006c6c61
 1d8:	65746163 	ldrbvs	r6, [r4, #-355]!	; 0x163
 1dc:	6f6d654d 	svcvs	0x006d654d
 1e0:	632e7972 	teqvs	lr, #1867776	; 0x1c8000
 1e4:	00000000 	andeq	r0, r0, r0
 1e8:	69647473 	stmdbvs	r4!, {r0, r1, r4, r5, r6, sl, ip, sp, lr}^
 1ec:	672d746e 	strvs	r7, [sp, -lr, ror #8]!
 1f0:	682e6363 	stmdavs	lr!, {r0, r1, r5, r6, r8, r9, sp, lr}
 1f4:	00000100 	andeq	r0, r0, r0, lsl #2
 1f8:	6f6c6c61 	svcvs	0x006c6c61
 1fc:	65746163 	ldrbvs	r6, [r4, #-355]!	; 0x163
 200:	6f6d654d 	svcvs	0x006d654d
 204:	682e7972 	stmdavs	lr!, {r1, r4, r5, r6, r8, fp, ip, sp, lr}
 208:	00000000 	andeq	r0, r0, r0
 20c:	02050000 	andeq	r0, r5, #0
 210:	00008258 	andeq	r8, r0, r8, asr r2
 214:	67012603 	strvs	r2, [r1, -r3, lsl #12]
 218:	834c674c 	movthi	r6, #51020	; 0xc74c
 21c:	2f4b694b 	svccs	0x004b694b
 220:	4b83bb9f 	blmi	fe0ef0a4 <_bss_end+0xfe0e50a4>
 224:	682108a0 	stmdavs	r1!, {r5, r7, fp}
 228:	04020031 	streq	r0, [r2], #-49	; 0x31
 22c:	66730301 	ldrbtvs	r0, [r3], -r1, lsl #6
 230:	02040200 	andeq	r0, r4, #0
 234:	03068206 	movweq	r8, #25094	; 0x6206
 238:	6734820a 	ldrvs	r8, [r4, -sl, lsl #4]!
 23c:	67a24b68 	strvs	r4, [r2, r8, ror #22]!
 240:	4c834bbb 	fstmiaxmi	r3, {d4-d96}	;@ Deprecated
 244:	820a032f 	andhi	r0, sl, #-1140850688	; 0xbc000000
 248:	679f2f4b 	ldrvs	r2, [pc, fp, asr #30]
 24c:	02009f30 	andeq	r9, r0, #192	; 0xc0
 250:	7a030104 	bvc	c0668 <_bss_end+0xb6668>
 254:	9e0903f2 	mcrls	3, 0, r0, cr9, cr2, {7}
 258:	f3f3674f 	vcvt.s<illegal width 8>.f<illegal width 8>	q11, <illegal reg q7.5>
 25c:	6b83f3d7 	blvs	fe0fd1c0 <_bss_end+0xfe0f31c0>
 260:	8367834b 	cmnhi	r7, #738197505	; 0x2c000001
 264:	01000402 	tsteq	r0, r2, lsl #8
 268:	00009801 	andeq	r9, r0, r1, lsl #16
 26c:	7f000200 	svcvc	0x00000200
 270:	02000000 	andeq	r0, r0, #0
 274:	0d0efb01 	vstreq	d15, [lr, #-4]
 278:	01010100 	mrseq	r0, (UNDEF: 17)
 27c:	00000001 	andeq	r0, r0, r1
 280:	01000001 	tsteq	r0, r1
 284:	74706f2f 	ldrbtvc	r6, [r0], #-3887	; 0xf2f
 288:	6669342f 	strbtvs	r3, [r9], -pc, lsr #8
 28c:	2f534c2d 	svccs	0x00534c2d
 290:	2d6d7261 	sfmcs	f7, 2, [sp, #-388]!	; 0xfffffe7c
 294:	656e6f6e 	strbvs	r6, [lr, #-3950]!	; 0xf6e
 298:	6261652d 	rsbvs	r6, r1, #188743680	; 0xb400000
 29c:	63672d69 	cmnvs	r7, #6720	; 0x1a40
 2a0:	696c2f63 	stmdbvs	ip!, {r0, r1, r5, r6, r8, r9, sl, fp, sp}^
 2a4:	63672f62 	cmnvs	r7, #392	; 0x188
 2a8:	72612f63 	rsbvc	r2, r1, #396	; 0x18c
 2ac:	6f6e2d6d 	svcvs	0x006e2d6d
 2b0:	652d656e 	strvs	r6, [sp, #-1390]!	; 0x56e
 2b4:	2f696261 	svccs	0x00696261
 2b8:	2e372e34 	mrccs	14, 1, r2, cr7, cr4, {1}
 2bc:	6e692f31 	mcrvs	15, 3, r2, cr9, cr1, {1}
 2c0:	64756c63 	ldrbtvs	r6, [r5], #-3171	; 0xc63
 2c4:	70000065 	andvc	r0, r0, r5, rrx
 2c8:	65636f72 	strbvs	r6, [r3, #-3954]!	; 0xf72
 2cc:	632e7373 	teqvs	lr, #-872415231	; 0xcc000001
 2d0:	00000000 	andeq	r0, r0, r0
 2d4:	69647473 	stmdbvs	r4!, {r0, r1, r4, r5, r6, sl, ip, sp, lr}^
 2d8:	672d746e 	strvs	r7, [sp, -lr, ror #8]!
 2dc:	682e6363 	stmdavs	lr!, {r0, r1, r5, r6, r8, r9, sp, lr}
 2e0:	00000100 	andeq	r0, r0, r0, lsl #2
 2e4:	636f7270 	cmnvs	pc, #7
 2e8:	2e737365 	cdpcs	3, 7, cr7, cr3, cr5, {3}
 2ec:	00000068 	andeq	r0, r0, r8, rrx
 2f0:	05000000 	streq	r0, [r0, #-0]
 2f4:	00855802 	addeq	r5, r5, r2, lsl #16
 2f8:	67bb1600 	ldrvs	r1, [fp, r0, lsl #12]!
 2fc:	67672108 	strbvs	r2, [r7, -r8, lsl #2]!
 300:	01000402 	tsteq	r0, r2, lsl #8
 304:	00009301 	andeq	r9, r0, r1, lsl #6
 308:	8d000200 	sfmhi	f0, 4, [r0, #-0]
 30c:	02000000 	andeq	r0, r0, #0
 310:	0d0efb01 	vstreq	d15, [lr, #-4]
 314:	01010100 	mrseq	r0, (UNDEF: 17)
 318:	00000001 	andeq	r0, r0, r1
 31c:	01000001 	tsteq	r0, r1
 320:	74706f2f 	ldrbtvc	r6, [r0], #-3887	; 0xf2f
 324:	6669342f 	strbtvs	r3, [r9], -pc, lsr #8
 328:	2f534c2d 	svccs	0x00534c2d
 32c:	2d6d7261 	sfmcs	f7, 2, [sp, #-388]!	; 0xfffffe7c
 330:	656e6f6e 	strbvs	r6, [lr, #-3950]!	; 0xf6e
 334:	6261652d 	rsbvs	r6, r1, #188743680	; 0xb400000
 338:	63672d69 	cmnvs	r7, #6720	; 0x1a40
 33c:	696c2f63 	stmdbvs	ip!, {r0, r1, r5, r6, r8, r9, sl, fp, sp}^
 340:	63672f62 	cmnvs	r7, #392	; 0x188
 344:	72612f63 	rsbvc	r2, r1, #396	; 0x18c
 348:	6f6e2d6d 	svcvs	0x006e2d6d
 34c:	652d656e 	strvs	r6, [sp, #-1390]!	; 0x56e
 350:	2f696261 	svccs	0x00696261
 354:	2e372e34 	mrccs	14, 1, r2, cr7, cr4, {1}
 358:	6e692f31 	mcrvs	15, 3, r2, cr9, cr1, {1}
 35c:	64756c63 	ldrbtvs	r6, [r5], #-3171	; 0xc63
 360:	73000065 	movwvc	r0, #101	; 0x65
 364:	6e696474 	mcrvs	4, 3, r6, cr9, cr4, {3}
 368:	63672d74 	cmnvs	r7, #7424	; 0x1d00
 36c:	00682e63 	rsbeq	r2, r8, r3, ror #28
 370:	70000001 	andvc	r0, r0, r1
 374:	65636f72 	strbvs	r6, [r3, #-3954]!	; 0xf72
 378:	682e7373 	stmdavs	lr!, {r0, r1, r4, r5, r6, r8, r9, ip, sp, lr}
 37c:	00000000 	andeq	r0, r0, r0
 380:	65686373 	strbvs	r6, [r8, #-883]!	; 0x373
 384:	00682e64 	rsbeq	r2, r8, r4, ror #28
 388:	64000000 	strvs	r0, [r0], #-0
 38c:	61707369 	cmnvs	r0, r9, ror #6
 390:	65686374 	strbvs	r6, [r8, #-884]!	; 0x374
 394:	00682e72 	rsbeq	r2, r8, r2, ror lr
 398:	00000000 	andeq	r0, r0, r0
 39c:	000000d4 	ldrdeq	r0, [r0], -r4
 3a0:	00980002 	addseq	r0, r8, r2
 3a4:	01020000 	mrseq	r0, (UNDEF: 2)
 3a8:	000d0efb 	strdeq	r0, [sp], -fp
 3ac:	01010101 	tsteq	r1, r1, lsl #2
 3b0:	01000000 	mrseq	r0, (UNDEF: 0)
 3b4:	2f010000 	svccs	0x00010000
 3b8:	2f74706f 	svccs	0x0074706f
 3bc:	2d666934 	stclcs	9, cr6, [r6, #-208]!	; 0xffffff30
 3c0:	612f534c 	teqvs	pc, ip, asr #6
 3c4:	6e2d6d72 	mcrvs	13, 1, r6, cr13, cr2, {3}
 3c8:	2d656e6f 	stclcs	14, cr6, [r5, #-444]!	; 0xfffffe44
 3cc:	69626165 	stmdbvs	r2!, {r0, r2, r5, r6, r8, sp, lr}^
 3d0:	6363672d 	cmnvs	r3, #11796480	; 0xb40000
 3d4:	62696c2f 	rsbvs	r6, r9, #12032	; 0x2f00
 3d8:	6363672f 	cmnvs	r3, #12320768	; 0xbc0000
 3dc:	6d72612f 	ldfvse	f6, [r2, #-188]!	; 0xffffff44
 3e0:	6e6f6e2d 	cdpvs	14, 6, cr6, cr15, cr13, {1}
 3e4:	61652d65 	cmnvs	r5, r5, ror #26
 3e8:	342f6962 	strtcc	r6, [pc], #-2402	; 3f0 <_start-0x7c10>
 3ec:	312e372e 	teqcc	lr, lr, lsr #14
 3f0:	636e692f 	cmnvs	lr, #770048	; 0xbc000
 3f4:	6564756c 	strbvs	r7, [r4, #-1388]!	; 0x56c
 3f8:	63730000 	cmnvs	r3, #0
 3fc:	2e646568 	cdpcs	5, 6, cr6, cr4, cr8, {3}
 400:	00000063 	andeq	r0, r0, r3, rrx
 404:	64747300 	ldrbtvs	r7, [r4], #-768	; 0x300
 408:	2d746e69 	ldclcs	14, cr6, [r4, #-420]!	; 0xfffffe5c
 40c:	2e636367 	cdpcs	3, 6, cr6, cr3, cr7, {3}
 410:	00010068 	andeq	r0, r1, r8, rrx
 414:	6f727000 	svcvs	0x00727000
 418:	73736563 	cmnvc	r3, #415236096	; 0x18c00000
 41c:	0000682e 	andeq	r6, r0, lr, lsr #16
 420:	63730000 	cmnvs	r3, #0
 424:	2e646568 	cdpcs	5, 6, cr6, cr4, cr8, {3}
 428:	00000068 	andeq	r0, r0, r8, rrx
 42c:	73696400 	cmnvc	r9, #0
 430:	63746170 	cmnvs	r4, #28
 434:	2e726568 	cdpcs	5, 7, cr6, cr2, cr8, {3}
 438:	00000068 	andeq	r0, r0, r8, rrx
 43c:	05000000 	streq	r0, [r0, #-0]
 440:	0085c002 	addeq	ip, r5, r2
 444:	85851500 	strhi	r1, [r5, #1280]	; 0x500
 448:	69856884 	stmibvs	r5, {r2, r7, fp, sp, lr}
 44c:	9f846984 	svcls	0x00846984
 450:	85301568 	ldrhi	r1, [r0, #-1384]!	; 0x568
 454:	8383a0a0 	orrhi	sl, r3, #160	; 0xa0
 458:	3485a0a0 	strcc	sl, [r5], #160	; 0xa0
 45c:	bcbbd8bc 	ldclt	8, cr13, [fp], #752	; 0x2f0
 460:	dabebbd8 	ble	fefaf3c8 <_bss_end+0xfefa53c8>
 464:	2f832f69 	svccs	0x00832f69
 468:	4bbb4c4d 	blmi	feed35a4 <_bss_end+0xfeec95a4>
 46c:	022f6767 	eoreq	r6, pc, #27000832	; 0x19c0000
 470:	01010008 	tsteq	r1, r8

Disassembly of section .debug_info:

00000000 <.debug_info>:
   0:	0000006b 	andeq	r0, r0, fp, rrx
   4:	00000002 	andeq	r0, r0, r2
   8:	01040000 	mrseq	r0, (UNDEF: 4)
   c:	00000000 	andeq	r0, r0, r0
  10:	00008000 	andeq	r8, r0, r0
  14:	00008078 	andeq	r8, r0, r8, ror r0
  18:	74636576 	strbtvc	r6, [r3], #-1398	; 0x576
  1c:	2e73726f 	cdpcs	2, 7, cr7, cr3, cr15, {3}
  20:	682f0073 	stmdavs	pc!, {r0, r1, r4, r5, r6}	; <UNPREDICTABLE>
  24:	2f656d6f 	svccs	0x00656d6f
  28:	69676f6d 	stmdbvs	r7!, {r0, r2, r3, r5, r6, r8, r9, sl, fp, sp, lr}^
  2c:	442f7265 	strtmi	r7, [pc], #-613	; 34 <_start-0x7fcc>
  30:	6d75636f 	ldclvs	3, cr6, [r5, #-444]!	; 0xfffffe44
  34:	73746e65 	cmnvc	r4, #1616	; 0x650
  38:	6e696d2f 	cdpvs	13, 6, cr6, cr9, cr15, {1}
  3c:	534f2d69 	movtpl	r2, #64873	; 0xfd69
  40:	4950522d 	ldmdbmi	r0, {r0, r2, r3, r5, r9, ip, lr}^
  44:	64726f2f 	ldrbtvs	r6, [r2], #-3887	; 0xf2f
  48:	616e6e6f 	cmnvs	lr, pc, ror #28
  4c:	6d65636e 	stclvs	3, cr6, [r5, #-440]!	; 0xfffffe48
  50:	5f746e65 	svcpl	0x00746e65
  54:	6c6c6f63 	stclvs	15, cr6, [ip], #-396	; 0xfffffe74
  58:	726f6261 	rsbvc	r6, pc, #268435462	; 0x10000006
  5c:	66697461 	strbtvs	r7, [r9], -r1, ror #8
  60:	554e4700 	strbpl	r4, [lr, #-1792]	; 0x700
  64:	20534120 	subscs	r4, r3, r0, lsr #2
  68:	32322e32 	eorscc	r2, r2, #800	; 0x320
  6c:	fa800100 	blx	fe000474 <_bss_end+0xfdff6474>
  70:	02000001 	andeq	r0, r0, #1
  74:	00001400 	andeq	r1, r0, r0, lsl #8
  78:	08010400 	stmdaeq	r1, {sl}
  7c:	01000001 	tsteq	r0, r1
  80:	0000006b 	andeq	r0, r0, fp, rrx
  84:	00000017 	andeq	r0, r0, r7, lsl r0
  88:	00008078 	andeq	r8, r0, r8, ror r0
  8c:	00008124 	andeq	r8, r0, r4, lsr #2
  90:	00000053 	andeq	r0, r0, r3, asr r0
  94:	7d060102 	stfvcs	f0, [r6, #-8]
  98:	02000000 	andeq	r0, r0, #0
  9c:	01140502 	tsteq	r4, r2, lsl #10
  a0:	04020000 	streq	r0, [r2], #-0
  a4:	0000ff05 	andeq	pc, r0, r5, lsl #30
  a8:	05080200 	streq	r0, [r8, #-512]	; 0x200
  ac:	000000fa 	strdeq	r0, [r0], -sl
  b0:	7b080102 	blvc	2004c0 <_bss_end+0x1f64c0>
  b4:	02000000 	andeq	r0, r0, #0
  b8:	009f0702 	addseq	r0, pc, r2, lsl #14
  bc:	1e030000 	cdpne	0, 0, cr0, cr3, cr0, {0}
  c0:	02000001 	andeq	r0, r0, #1
  c4:	00005a34 	andeq	r5, r0, r4, lsr sl
  c8:	07040200 	streq	r0, [r4, -r0, lsl #4]
  cc:	000000e2 	andeq	r0, r0, r2, ror #1
  d0:	dd070802 	stcle	8, cr0, [r7, #-8]
  d4:	04000000 	streq	r0, [r0], #-0
  d8:	6e690504 	cdpvs	5, 6, cr0, cr9, cr4, {0}
  dc:	04020074 	streq	r0, [r2], #-116	; 0x74
  e0:	0000e707 	andeq	lr, r0, r7, lsl #14
  e4:	03010500 	movweq	r0, #5376	; 0x1500
  e8:	00009d08 	andeq	r9, r0, r8, lsl #26
  ec:	00f40600 	rscseq	r0, r4, r0, lsl #12
  f0:	06000000 	streq	r0, [r0], -r0
  f4:	00000127 	andeq	r0, r0, r7, lsr #2
  f8:	00c50601 	sbceq	r0, r5, r1, lsl #12
  fc:	07020000 	streq	r0, [r2, -r0]
 100:	0057454e 	subseq	r4, r7, lr, asr #10
 104:	01340603 	teqeq	r4, r3, lsl #12
 108:	00040000 	andeq	r0, r4, r0
 10c:	00001003 	andeq	r1, r0, r3
 110:	76080300 	strvc	r0, [r8], -r0, lsl #6
 114:	08000000 	stmdaeq	r0, {}	; <UNPREDICTABLE>
 118:	00000075 	andeq	r0, r0, r5, ror r0
 11c:	f90a0314 			; <UNDEFINED> instruction: 0xf90a0314
 120:	09000000 	stmdbeq	r0, {}	; <UNPREDICTABLE>
 124:	03007073 	movweq	r7, #115	; 0x73
 128:	0000f90b 	andeq	pc, r0, fp, lsl #18
 12c:	00230200 	eoreq	r0, r3, r0, lsl #4
 130:	00637009 	rsbeq	r7, r3, r9
 134:	00f90c03 	rscseq	r0, r9, r3, lsl #24
 138:	23020000 	movwcs	r0, #8192	; 0x2000
 13c:	00560a04 	subseq	r0, r6, r4, lsl #20
 140:	0d030000 	stceq	0, cr0, [r3, #-0]
 144:	0000009d 	muleq	r0, sp, r0
 148:	09082302 	stmdbeq	r8, {r1, r8, r9, sp}
 14c:	00677261 	rsbeq	r7, r7, r1, ror #4
 150:	00ff0e03 	rscseq	r0, pc, r3, lsl #28
 154:	23020000 	movwcs	r0, #8192	; 0x2000
 158:	012f0a0c 	teqeq	pc, ip, lsl #20
 15c:	0f030000 	svceq	0x00030000
 160:	00000101 	andeq	r0, r0, r1, lsl #2
 164:	00102302 	andseq	r2, r0, r2, lsl #6
 168:	004f040b 	subeq	r0, pc, fp, lsl #8
 16c:	040c0000 	streq	r0, [ip], #-0
 170:	00a8040b 	adceq	r0, r8, fp, lsl #8
 174:	75030000 	strvc	r0, [r3, #-0]
 178:	03000000 	movweq	r0, #0
 17c:	0000a811 	andeq	sl, r0, r1, lsl r8
 180:	005c0800 	subseq	r0, ip, r0, lsl #16
 184:	04080000 	streq	r0, [r8], #-0
 188:	00013b08 	andeq	r3, r1, r8, lsl #22
 18c:	00650a00 	rsbeq	r0, r5, r0, lsl #20
 190:	09040000 	stmdbeq	r4, {}	; <UNPREDICTABLE>
 194:	0000013b 	andeq	r0, r0, fp, lsr r1
 198:	0a002302 	beq	8da8 <start_scheduler+0x5b4>
 19c:	0000013f 	andeq	r0, r0, pc, lsr r1
 1a0:	013b0a04 	teqeq	fp, r4, lsl #20
 1a4:	23020000 	movwcs	r0, #8192	; 0x2000
 1a8:	040b0004 	streq	r0, [fp], #-4
 1ac:	00000107 	andeq	r0, r0, r7, lsl #2
 1b0:	00005c03 	andeq	r5, r0, r3, lsl #24
 1b4:	120b0400 	andne	r0, fp, #0
 1b8:	0d000001 	stceq	0, cr0, [r0, #-4]
 1bc:	00000001 	andeq	r0, r0, r1
 1c0:	781a0100 	ldmdavc	sl, {r8}
 1c4:	b4000080 	strlt	r0, [r0], #-128	; 0x80
 1c8:	00000080 	andeq	r0, r0, r0, lsl #1
 1cc:	01000000 	mrseq	r0, (UNDEF: 0)
 1d0:	00000174 	andeq	r0, r0, r4, ror r1
 1d4:	0000060e 	andeq	r0, r0, lr, lsl #12
 1d8:	681c0100 	ldmdavs	ip, {r8}
 1dc:	02000000 	andeq	r0, r0, #0
 1e0:	0d007491 	cfstrseq	mvf7, [r0, #-580]	; 0xfffffdbc
 1e4:	0000bf01 	andeq	fp, r0, r1, lsl #30
 1e8:	b4240100 	strtlt	r0, [r4], #-256	; 0x100
 1ec:	f0000080 			; <UNDEFINED> instruction: 0xf0000080
 1f0:	2c000080 	stccs	0, cr0, [r0], {128}	; 0x80
 1f4:	01000000 	mrseq	r0, (UNDEF: 0)
 1f8:	0000019c 	muleq	r0, ip, r1
 1fc:	00000b0e 	andeq	r0, r0, lr, lsl #22
 200:	68260100 	stmdavs	r6!, {r8}
 204:	02000000 	andeq	r0, r0, #0
 208:	0f007491 	svceq	0x00007491
 20c:	00014401 	andeq	r4, r1, r1, lsl #8
 210:	01300100 	teqeq	r0, r0, lsl #2
 214:	00000068 	andeq	r0, r0, r8, rrx
 218:	000080f0 	strdeq	r8, [r0], -r0
 21c:	00008124 	andeq	r8, r0, r4, lsr #2
 220:	00000058 	andeq	r0, r0, r8, asr r0
 224:	0001ca01 	andeq	ip, r1, r1, lsl #20
 228:	8f011000 	svchi	0x00011000
 22c:	01000000 	mrseq	r0, (UNDEF: 0)
 230:	0000683c 	andeq	r6, r0, ip, lsr r8
 234:	00110100 	andseq	r0, r1, r0, lsl #2
 238:	00b20e00 	adcseq	r0, r2, r0, lsl #28
 23c:	06040000 	streq	r0, [r4], -r0
 240:	0000013b 	andeq	r0, r0, fp, lsr r1
 244:	90000305 	andls	r0, r0, r5, lsl #6
 248:	890e0000 	stmdbhi	lr, {}	; <UNPREDICTABLE>
 24c:	04000000 	streq	r0, [r0], #-0
 250:	0001410d 	andeq	r4, r1, sp, lsl #2
 254:	04030500 	streq	r0, [r3], #-1280	; 0x500
 258:	0e000090 	mcreq	0, 0, r0, cr0, cr0, {4}
 25c:	000000cd 	andeq	r0, r0, sp, asr #1
 260:	013b0b05 	teqeq	fp, r5, lsl #22
 264:	03050000 	movweq	r0, #20480	; 0x5000
 268:	0000900c 	andeq	r9, r0, ip
 26c:	0000d400 	andeq	sp, r0, r0, lsl #8
 270:	00000200 	andeq	r0, r0, r0, lsl #4
 274:	04000001 	streq	r0, [r0], #-1
 278:	00010801 	andeq	r0, r1, r1, lsl #16
 27c:	015e0100 	cmpeq	lr, r0, lsl #2
 280:	00170000 	andseq	r0, r7, r0
 284:	81240000 	teqhi	r4, r0
 288:	82580000 	subshi	r0, r8, #0
 28c:	01230000 	teqeq	r3, r0
 290:	01020000 	mrseq	r0, (UNDEF: 2)
 294:	00000184 	andeq	r0, r0, r4, lsl #3
 298:	81241701 	teqhi	r4, r1, lsl #14
 29c:	813c0000 	teqhi	ip, r0
 2a0:	00780000 	rsbseq	r0, r8, r0
 2a4:	02010000 	andeq	r0, r1, #0
 2a8:	00014c01 	andeq	r4, r1, r1, lsl #24
 2ac:	3c1e0100 	ldfccs	f0, [lr], {-0}
 2b0:	54000081 	strpl	r0, [r0], #-129	; 0x81
 2b4:	98000081 	stmdals	r0, {r0, r7}
 2b8:	01000000 	mrseq	r0, (UNDEF: 0)
 2bc:	01720103 	cmneq	r2, r3, lsl #2
 2c0:	26010000 	strcs	r0, [r1], -r0
 2c4:	00008154 	andeq	r8, r0, r4, asr r1
 2c8:	00008194 	muleq	r0, r4, r1
 2cc:	000000b8 	strheq	r0, [r0], -r8
 2d0:	00007601 	andeq	r7, r0, r1, lsl #12
 2d4:	78720400 	ldmdavc	r2!, {sl}^
 2d8:	76280100 	strtvc	r0, [r8], -r0, lsl #2
 2dc:	02000000 	andeq	r0, r0, #0
 2e0:	05007491 	streq	r7, [r0, #-1169]	; 0x491
 2e4:	00e70704 	rsceq	r0, r7, r4, lsl #14
 2e8:	01020000 	mrseq	r0, (UNDEF: 2)
 2ec:	00000195 	muleq	r0, r5, r1
 2f0:	81943501 	orrshi	r3, r4, r1, lsl #10
 2f4:	81ac0000 			; <UNDEFINED> instruction: 0x81ac0000
 2f8:	00e40000 	rsceq	r0, r4, r0
 2fc:	02010000 	andeq	r0, r1, #0
 300:	00016301 	andeq	r6, r1, r1, lsl #6
 304:	ac3b0100 	ldfges	f0, [fp], #-0
 308:	c4000081 	strgt	r0, [r0], #-129	; 0x81
 30c:	04000081 	streq	r0, [r0], #-129	; 0x81
 310:	01000001 	tsteq	r0, r1
 314:	016a0106 	cmneq	sl, r6, lsl #2
 318:	44010000 	strmi	r0, [r1], #-0
 31c:	000081c4 	andeq	r8, r0, r4, asr #3
 320:	00008258 	andeq	r8, r0, r8, asr r2
 324:	00000124 	andeq	r0, r0, r4, lsr #2
 328:	61720401 	cmnvs	r2, r1, lsl #8
 32c:	76460100 	strbvc	r0, [r6], -r0, lsl #2
 330:	02000000 	andeq	r0, r0, #0
 334:	72047491 	andvc	r7, r4, #-1862270976	; 0x91000000
 338:	47010078 	smlsdxmi	r1, r8, r0, r0
 33c:	00000076 	andeq	r0, r0, r6, ror r0
 340:	00709102 	rsbseq	r9, r0, r2, lsl #2
 344:	0001d300 	andeq	sp, r1, r0, lsl #6
 348:	72000200 	andvc	r0, r0, #0
 34c:	04000001 	streq	r0, [r0], #-1
 350:	00010801 	andeq	r0, r1, r1, lsl #16
 354:	01f50100 	mvnseq	r0, r0, lsl #2
 358:	00170000 	andseq	r0, r7, r0
 35c:	82580000 	subshi	r0, r8, #0
 360:	85580000 	ldrbhi	r0, [r8, #-0]
 364:	01760000 	cmneq	r6, r0
 368:	01020000 	mrseq	r0, (UNDEF: 2)
 36c:	00007d06 	andeq	r7, r0, r6, lsl #26
 370:	05020200 	streq	r0, [r2, #-512]	; 0x200
 374:	00000114 	andeq	r0, r0, r4, lsl r1
 378:	ff050402 			; <UNDEFINED> instruction: 0xff050402
 37c:	02000000 	andeq	r0, r0, #0
 380:	00fa0508 	rscseq	r0, sl, r8, lsl #10
 384:	01020000 	mrseq	r0, (UNDEF: 2)
 388:	00007b08 	andeq	r7, r0, r8, lsl #22
 38c:	07020200 	streq	r0, [r2, -r0, lsl #4]
 390:	0000009f 	muleq	r0, pc, r0	; <UNPREDICTABLE>
 394:	00011e03 	andeq	r1, r1, r3, lsl #28
 398:	5a340200 	bpl	d00ba0 <_bss_end+0xcf6ba0>
 39c:	02000000 	andeq	r0, r0, #0
 3a0:	00e20704 	rsceq	r0, r2, r4, lsl #14
 3a4:	08020000 	stmdaeq	r2, {}	; <UNPREDICTABLE>
 3a8:	0000dd07 	andeq	sp, r0, r7, lsl #26
 3ac:	05040400 	streq	r0, [r4, #-1024]	; 0x400
 3b0:	00746e69 	rsbseq	r6, r4, r9, ror #28
 3b4:	e7070402 	str	r0, [r7, -r2, lsl #8]
 3b8:	03000000 	movweq	r0, #0
 3bc:	0000019d 	muleq	r0, sp, r1
 3c0:	004f0603 	subeq	r0, pc, r3, lsl #12
 3c4:	01050000 	mrseq	r0, (UNDEF: 5)
 3c8:	000001d0 	ldrdeq	r0, [r0], -r0	; <UNPREDICTABLE>
 3cc:	de012601 	cfmadd32le	mvax0, mvfx2, mvfx1, mvfx1
 3d0:	58000000 	stmdapl	r0, {}	; <UNPREDICTABLE>
 3d4:	a0000082 	andge	r0, r0, r2, lsl #1
 3d8:	50000083 	andpl	r0, r0, r3, lsl #1
 3dc:	01000001 	tsteq	r0, r1
 3e0:	000000de 	ldrdeq	r0, [r0], -lr
 3e4:	00027e06 	andeq	r7, r2, r6, lsl #28
 3e8:	76260100 	strtvc	r0, [r6], -r0, lsl #2
 3ec:	02000000 	andeq	r0, r0, #0
 3f0:	39076491 	stmdbcc	r7, {r0, r4, r7, sl, sp, lr}
 3f4:	01000002 	tsteq	r0, r2
 3f8:	0000de28 	andeq	sp, r0, r8, lsr #28
 3fc:	74910200 	ldrvc	r0, [r1], #512	; 0x200
 400:	00025f07 	andeq	r5, r2, r7, lsl #30
 404:	68320100 	ldmdavs	r2!, {r8}
 408:	02000000 	andeq	r0, r0, #0
 40c:	00087091 	muleq	r8, r1, r0
 410:	07000000 	streq	r0, [r0, -r0]
 414:	00000213 	andeq	r0, r0, r3, lsl r2
 418:	00763501 	rsbseq	r3, r6, r1, lsl #10
 41c:	91020000 	mrsls	r0, (UNDEF: 2)
 420:	0900006c 	stmdbeq	r0, {r2, r3, r5, r6}
 424:	00007604 	andeq	r7, r0, r4, lsl #12
 428:	bc010500 	cfstr32lt	mvfx0, [r1], {-0}
 42c:	01000001 	tsteq	r0, r1
 430:	0068014a 	rsbeq	r0, r8, sl, asr #2
 434:	83a00000 	movhi	r0, #0
 438:	83f80000 	mvnshi	r0, #0
 43c:	017c0000 	cmneq	ip, r0
 440:	11010000 	mrsne	r0, (UNDEF: 1)
 444:	06000001 	streq	r0, [r0], -r1
 448:	00000223 	andeq	r0, r0, r3, lsr #4
 44c:	00de4a01 	sbcseq	r4, lr, r1, lsl #20
 450:	91020000 	mrsls	r0, (UNDEF: 2)
 454:	010a0074 	tsteq	sl, r4, ror r0
 458:	000001df 	ldrdeq	r0, [r0], -pc	; <UNPREDICTABLE>
 45c:	f8015b01 			; <UNDEFINED> instruction: 0xf8015b01
 460:	78000083 	stmdavc	r0, {r0, r1, r7}
 464:	a8000084 	stmdage	r0, {r2, r7}
 468:	01000001 	tsteq	r0, r1
 46c:	0000013a 	andeq	r0, r0, sl, lsr r1
 470:	00022306 	andeq	r2, r2, r6, lsl #6
 474:	de5b0100 	rdflee	f0, f3, f0
 478:	02000000 	andeq	r0, r0, #0
 47c:	0a007c91 	beq	1f6c8 <_bss_end+0x156c8>
 480:	00020601 	andeq	r0, r2, r1, lsl #12
 484:	016a0100 	cmneq	sl, r0, lsl #2
 488:	00008478 	andeq	r8, r0, r8, ror r4
 48c:	0000851c 	andeq	r8, r0, ip, lsl r5
 490:	000001c8 	andeq	r0, r0, r8, asr #3
 494:	00017101 	andeq	r7, r1, r1, lsl #2
 498:	02230600 	eoreq	r0, r3, #0
 49c:	6a010000 	bvs	404a4 <_bss_end+0x364a4>
 4a0:	000000de 	ldrdeq	r0, [r0], -lr
 4a4:	067c9102 	ldrbteq	r9, [ip], -r2, lsl #2
 4a8:	0000027e 	andeq	r0, r0, lr, ror r2
 4ac:	00766a01 	rsbseq	r6, r6, r1, lsl #20
 4b0:	91020000 	mrsls	r0, (UNDEF: 2)
 4b4:	010a0078 	tsteq	sl, r8, ror r0
 4b8:	0000024b 	andeq	r0, r0, fp, asr #4
 4bc:	1c017501 	cfstr32ne	mvfx7, [r1], {1}
 4c0:	58000085 	stmdapl	r0, {r0, r2, r7}
 4c4:	e8000085 	stmda	r0, {r0, r2, r7}
 4c8:	01000001 	tsteq	r0, r1
 4cc:	0000019a 	muleq	r0, sl, r1
 4d0:	00022306 	andeq	r2, r2, r6, lsl #6
 4d4:	de750100 	rpwles	f0, f5, f0
 4d8:	02000000 	andeq	r0, r0, #0
 4dc:	0b007c91 	bleq	1f728 <_bss_end+0x15728>
 4e0:	00000041 	andeq	r0, r0, r1, asr #32
 4e4:	000001ab 	andeq	r0, r0, fp, lsr #3
 4e8:	0001ab0c 	andeq	sl, r1, ip, lsl #22
 4ec:	0007ff00 	andeq	pc, r7, r0, lsl #30
 4f0:	30070402 	andcc	r0, r7, r2, lsl #8
 4f4:	0d000002 	stceq	0, cr0, [r0, #-8]
 4f8:	0000022b 	andeq	r0, r0, fp, lsr #4
 4fc:	019a1801 	orrseq	r1, sl, r1, lsl #16
 500:	05010000 	streq	r0, [r1, #-0]
 504:	00903403 	addseq	r3, r0, r3, lsl #8
 508:	01ae0d00 			; <UNDEFINED> instruction: 0x01ae0d00
 50c:	1e010000 	cdpne	0, 0, cr0, cr1, cr0, {0}
 510:	00000068 	andeq	r0, r0, r8, rrx
 514:	30030501 	andcc	r0, r3, r1, lsl #10
 518:	00000090 	muleq	r0, r0, r0
 51c:	00000164 	andeq	r0, r0, r4, ror #2
 520:	02300002 	eorseq	r0, r0, #2
 524:	01040000 	mrseq	r0, (UNDEF: 4)
 528:	00000108 	andeq	r0, r0, r8, lsl #2
 52c:	00026e01 	andeq	r6, r2, r1, lsl #28
 530:	00001700 	andeq	r1, r0, r0, lsl #14
 534:	00855800 	addeq	r5, r5, r0, lsl #16
 538:	0085c000 	addeq	ip, r5, r0
 53c:	00026900 	andeq	r6, r2, r0, lsl #18
 540:	06010200 	streq	r0, [r1], -r0, lsl #4
 544:	0000007d 	andeq	r0, r0, sp, ror r0
 548:	14050202 	strne	r0, [r5], #-514	; 0x202
 54c:	02000001 	andeq	r0, r0, #1
 550:	00ff0504 	rscseq	r0, pc, r4, lsl #10
 554:	08020000 	stmdaeq	r2, {}	; <UNPREDICTABLE>
 558:	0000fa05 	andeq	pc, r0, r5, lsl #20
 55c:	08010200 	stmdaeq	r1, {r9}
 560:	0000007b 	andeq	r0, r0, fp, ror r0
 564:	9f070202 	svcls	0x00070202
 568:	03000000 	movweq	r0, #0
 56c:	0000011e 	andeq	r0, r0, lr, lsl r1
 570:	005a3402 	subseq	r3, sl, r2, lsl #8
 574:	04020000 	streq	r0, [r2], #-0
 578:	0000e207 	andeq	lr, r0, r7, lsl #4
 57c:	07080200 	streq	r0, [r8, -r0, lsl #4]
 580:	000000dd 	ldrdeq	r0, [r0], -sp
 584:	69050404 	stmdbvs	r5, {r2, sl}
 588:	0200746e 	andeq	r7, r0, #1845493760	; 0x6e000000
 58c:	00e70704 	rsceq	r0, r7, r4, lsl #14
 590:	67030000 	strvs	r0, [r3, -r0]
 594:	03000002 	movweq	r0, #2
 598:	00008106 	andeq	r8, r0, r6, lsl #2
 59c:	87040500 	strhi	r0, [r4, -r0, lsl #10]
 5a0:	06000000 	streq	r0, [r0], -r0
 5a4:	03010701 	movweq	r0, #5889	; 0x1701
 5a8:	0000b008 	andeq	fp, r0, r8
 5ac:	00f40800 	rscseq	r0, r4, r0, lsl #16
 5b0:	08000000 	stmdaeq	r0, {}	; <UNPREDICTABLE>
 5b4:	00000127 	andeq	r0, r0, r7, lsr #2
 5b8:	00c50801 	sbceq	r0, r5, r1, lsl #16
 5bc:	09020000 	stmdbeq	r2, {}	; <UNPREDICTABLE>
 5c0:	0057454e 	subseq	r4, r7, lr, asr #10
 5c4:	01340803 	teqeq	r4, r3, lsl #16
 5c8:	00040000 	andeq	r0, r4, r0
 5cc:	00001003 	andeq	r1, r0, r3
 5d0:	89080300 	stmdbhi	r8, {r8, r9}
 5d4:	0a000000 	beq	5dc <_start-0x7a24>
 5d8:	00000075 	andeq	r0, r0, r5, ror r0
 5dc:	0c0a0314 	stceq	3, cr0, [sl], {20}
 5e0:	0b000001 	bleq	5ec <_start-0x7a14>
 5e4:	03007073 	movweq	r7, #115	; 0x73
 5e8:	00010c0b 	andeq	r0, r1, fp, lsl #24
 5ec:	00230200 	eoreq	r0, r3, r0, lsl #4
 5f0:	0063700b 	rsbeq	r7, r3, fp
 5f4:	010c0c03 	tsteq	ip, r3, lsl #24
 5f8:	23020000 	movwcs	r0, #8192	; 0x2000
 5fc:	00560c04 	subseq	r0, r6, r4, lsl #24
 600:	0d030000 	stceq	0, cr0, [r3, #-0]
 604:	000000b0 	strheq	r0, [r0], -r0	; <UNPREDICTABLE>
 608:	0b082302 	bleq	209218 <_bss_end+0x1ff218>
 60c:	00677261 	rsbeq	r7, r7, r1, ror #4
 610:	01120e03 	tsteq	r2, r3, lsl #28
 614:	23020000 	movwcs	r0, #8192	; 0x2000
 618:	012f0c0c 	teqeq	pc, ip, lsl #24
 61c:	0f030000 	svceq	0x00030000
 620:	00000114 	andeq	r0, r0, r4, lsl r1
 624:	00102302 	andseq	r2, r0, r2, lsl #6
 628:	004f0405 	subeq	r0, pc, r5, lsl #8
 62c:	040d0000 	streq	r0, [sp], #-0
 630:	00bb0405 	adcseq	r0, fp, r5, lsl #8
 634:	010e0000 	mrseq	r0, (UNDEF: 14)
 638:	00000283 	andeq	r0, r0, r3, lsl #5
 63c:	58010401 	stmdapl	r1, {r0, sl}
 640:	c0000085 	andgt	r0, r0, r5, lsl #1
 644:	08000085 	stmdaeq	r0, {r0, r2, r7}
 648:	01000002 	tsteq	r0, r2
 64c:	6263700f 	rsbvs	r7, r3, #15
 650:	14040100 	strne	r0, [r4], #-256	; 0x100
 654:	02000001 	andeq	r0, r0, #1
 658:	660f7491 			; <UNDEFINED> instruction: 0x660f7491
 65c:	76040100 	strvc	r0, [r4], -r0, lsl #2
 660:	02000000 	andeq	r0, r0, #0
 664:	78107091 	ldmdavc	r0, {r0, r4, r7, ip, sp, lr}
 668:	01000002 	tsteq	r0, r2
 66c:	00006f04 	andeq	r6, r0, r4, lsl #30
 670:	6c910200 	lfmvs	f0, 4, [r1], {0}
 674:	6772610f 	ldrbvs	r6, [r2, -pc, lsl #2]!
 678:	12040100 	andne	r0, r4, #0
 67c:	02000001 	andeq	r0, r0, #1
 680:	00006891 	muleq	r0, r1, r8
 684:	00000174 	andeq	r0, r0, r4, ror r1
 688:	03000002 	movweq	r0, #2
 68c:	01040000 	mrseq	r0, (UNDEF: 4)
 690:	00000108 	andeq	r0, r0, r8, lsl #2
 694:	00028c01 	andeq	r8, r2, r1, lsl #24
 698:	00001700 	andeq	r1, r0, r0, lsl #14
 69c:	00030500 	andeq	r0, r3, r0, lsl #10
 6a0:	06010200 	streq	r0, [r1], -r0, lsl #4
 6a4:	0000007d 	andeq	r0, r0, sp, ror r0
 6a8:	14050202 	strne	r0, [r5], #-514	; 0x202
 6ac:	02000001 	andeq	r0, r0, #1
 6b0:	00ff0504 	rscseq	r0, pc, r4, lsl #10
 6b4:	08020000 	stmdaeq	r2, {}	; <UNPREDICTABLE>
 6b8:	0000fa05 	andeq	pc, r0, r5, lsl #20
 6bc:	08010200 	stmdaeq	r1, {r9}
 6c0:	0000007b 	andeq	r0, r0, fp, ror r0
 6c4:	9f070202 	svcls	0x00070202
 6c8:	03000000 	movweq	r0, #0
 6cc:	0000011e 	andeq	r0, r0, lr, lsl r1
 6d0:	00523401 	subseq	r3, r2, r1, lsl #8
 6d4:	04020000 	streq	r0, [r2], #-0
 6d8:	0000e207 	andeq	lr, r0, r7, lsl #4
 6dc:	07080200 	streq	r0, [r8, -r0, lsl #4]
 6e0:	000000dd 	ldrdeq	r0, [r0], -sp
 6e4:	69050404 	stmdbvs	r5, {r2, sl}
 6e8:	0200746e 	andeq	r7, r0, #1845493760	; 0x6e000000
 6ec:	00e70704 	rsceq	r0, r7, r4, lsl #14
 6f0:	01050000 	mrseq	r0, (UNDEF: 5)
 6f4:	00950802 	addseq	r0, r5, r2, lsl #16
 6f8:	f4060000 	vst4.8	{d0-d3}, [r6], r0
 6fc:	00000000 	andeq	r0, r0, r0
 700:	00012706 	andeq	r2, r1, r6, lsl #14
 704:	c5060100 	strgt	r0, [r6, #-256]	; 0x100
 708:	02000000 	andeq	r0, r0, #0
 70c:	57454e07 	strbpl	r4, [r5, -r7, lsl #28]
 710:	34060300 	strcc	r0, [r6], #-768	; 0x300
 714:	04000001 	streq	r0, [r0], #-1
 718:	00100300 	andseq	r0, r0, r0, lsl #6
 71c:	08020000 	stmdaeq	r2, {}	; <UNPREDICTABLE>
 720:	0000006e 	andeq	r0, r0, lr, rrx
 724:	00007508 	andeq	r7, r0, r8, lsl #10
 728:	0a021400 	beq	85730 <_bss_end+0x7b730>
 72c:	000000f1 	strdeq	r0, [r0], -r1
 730:	00707309 	rsbseq	r7, r0, r9, lsl #6
 734:	00f10b02 	rscseq	r0, r1, r2, lsl #22
 738:	23020000 	movwcs	r0, #8192	; 0x2000
 73c:	63700900 	cmnvs	r0, #0
 740:	f10c0200 			; <UNDEFINED> instruction: 0xf10c0200
 744:	02000000 	andeq	r0, r0, #0
 748:	560a0423 	strpl	r0, [sl], -r3, lsr #8
 74c:	02000000 	andeq	r0, r0, #0
 750:	0000950d 	andeq	r9, r0, sp, lsl #10
 754:	08230200 	stmdaeq	r3!, {r9}
 758:	67726109 	ldrbvs	r6, [r2, -r9, lsl #2]!
 75c:	f70e0200 			; <UNDEFINED> instruction: 0xf70e0200
 760:	02000000 	andeq	r0, r0, #0
 764:	2f0a0c23 	svccs	0x000a0c23
 768:	02000001 	andeq	r0, r0, #1
 76c:	0000f90f 	andeq	pc, r0, pc, lsl #18
 770:	10230200 	eorne	r0, r3, r0, lsl #4
 774:	47040b00 	strmi	r0, [r4, -r0, lsl #22]
 778:	0c000000 	stceq	0, cr0, [r0], {-0}
 77c:	a0040b04 	andge	r0, r4, r4, lsl #22
 780:	03000000 	movweq	r0, #0
 784:	00000075 	andeq	r0, r0, r5, ror r0
 788:	00a01102 	adceq	r1, r0, r2, lsl #2
 78c:	5c080000 	stcpl	0, cr0, [r8], {-0}
 790:	08000000 	stmdaeq	r0, {}	; <UNPREDICTABLE>
 794:	01330803 	teqeq	r3, r3, lsl #16
 798:	650a0000 	strvs	r0, [sl, #-0]
 79c:	03000000 	movweq	r0, #0
 7a0:	00013309 	andeq	r3, r1, r9, lsl #6
 7a4:	00230200 	eoreq	r0, r3, r0, lsl #4
 7a8:	00013f0a 	andeq	r3, r1, sl, lsl #30
 7ac:	330a0300 	movwcc	r0, #41728	; 0xa300
 7b0:	02000001 	andeq	r0, r0, #1
 7b4:	0b000423 	bleq	1848 <_start-0x67b8>
 7b8:	0000ff04 	andeq	pc, r0, r4, lsl #30
 7bc:	005c0300 	subseq	r0, ip, r0, lsl #6
 7c0:	0b030000 	bleq	c07c8 <_bss_end+0xb67c8>
 7c4:	0000010a 	andeq	r0, r0, sl, lsl #2
 7c8:	0000b20d 	andeq	fp, r0, sp, lsl #4
 7cc:	33060300 	movwcc	r0, #25344	; 0x6300
 7d0:	05000001 	streq	r0, [r0, #-1]
 7d4:	00901003 	addseq	r1, r0, r3
 7d8:	00890d00 	addeq	r0, r9, r0, lsl #26
 7dc:	0d030000 	stceq	0, cr0, [r3, #-0]
 7e0:	00000139 	andeq	r0, r0, r9, lsr r1
 7e4:	90140305 	andsls	r0, r4, r5, lsl #6
 7e8:	cd0d0000 	stcgt	0, cr0, [sp, #-0]
 7ec:	04000000 	streq	r0, [r0], #-0
 7f0:	0001330b 	andeq	r3, r1, fp, lsl #6
 7f4:	1c030500 	cfstr32ne	mvfx0, [r3], {-0}
 7f8:	00000090 	muleq	r0, r0, r0
 7fc:	00000232 	andeq	r0, r0, r2, lsr r2
 800:	039e0002 	orrseq	r0, lr, #2
 804:	01040000 	mrseq	r0, (UNDEF: 4)
 808:	00000108 	andeq	r0, r0, r8, lsl #2
 80c:	00029901 	andeq	r9, r2, r1, lsl #18
 810:	00001700 	andeq	r1, r0, r0, lsl #14
 814:	0085c000 	addeq	ip, r5, r0
 818:	00884800 	addeq	r4, r8, r0, lsl #16
 81c:	00039c00 	andeq	r9, r3, r0, lsl #24
 820:	06010200 	streq	r0, [r1], -r0, lsl #4
 824:	0000007d 	andeq	r0, r0, sp, ror r0
 828:	14050202 	strne	r0, [r5], #-514	; 0x202
 82c:	02000001 	andeq	r0, r0, #1
 830:	00ff0504 	rscseq	r0, pc, r4, lsl #10
 834:	08020000 	stmdaeq	r2, {}	; <UNPREDICTABLE>
 838:	0000fa05 	andeq	pc, r0, r5, lsl #20
 83c:	08010200 	stmdaeq	r1, {r9}
 840:	0000007b 	andeq	r0, r0, fp, ror r0
 844:	9f070202 	svcls	0x00070202
 848:	03000000 	movweq	r0, #0
 84c:	0000011e 	andeq	r0, r0, lr, lsl r1
 850:	005a3402 	subseq	r3, sl, r2, lsl #8
 854:	04020000 	streq	r0, [r2], #-0
 858:	0000e207 	andeq	lr, r0, r7, lsl #4
 85c:	07080200 	streq	r0, [r8, -r0, lsl #4]
 860:	000000dd 	ldrdeq	r0, [r0], -sp
 864:	69050404 	stmdbvs	r5, {r2, sl}
 868:	0200746e 	andeq	r7, r0, #1845493760	; 0x6e000000
 86c:	00e70704 	rsceq	r0, r7, r4, lsl #14
 870:	67030000 	strvs	r0, [r3, -r0]
 874:	03000002 	movweq	r0, #2
 878:	00008106 	andeq	r8, r0, r6, lsl #2
 87c:	87040500 	strhi	r0, [r4, -r0, lsl #10]
 880:	06000000 	streq	r0, [r0], -r0
 884:	03010701 	movweq	r0, #5889	; 0x1701
 888:	0000b008 	andeq	fp, r0, r8
 88c:	00f40800 	rscseq	r0, r4, r0, lsl #16
 890:	08000000 	stmdaeq	r0, {}	; <UNPREDICTABLE>
 894:	00000127 	andeq	r0, r0, r7, lsr #2
 898:	00c50801 	sbceq	r0, r5, r1, lsl #16
 89c:	09020000 	stmdbeq	r2, {}	; <UNPREDICTABLE>
 8a0:	0057454e 	subseq	r4, r7, lr, asr #10
 8a4:	01340803 	teqeq	r4, r3, lsl #16
 8a8:	00040000 	andeq	r0, r4, r0
 8ac:	00001003 	andeq	r1, r0, r3
 8b0:	89080300 	stmdbhi	r8, {r8, r9}
 8b4:	0a000000 	beq	8bc <_start-0x7744>
 8b8:	00000075 	andeq	r0, r0, r5, ror r0
 8bc:	0c0a0314 	stceq	3, cr0, [sl], {20}
 8c0:	0b000001 	bleq	8cc <_start-0x7734>
 8c4:	03007073 	movweq	r7, #115	; 0x73
 8c8:	00010c0b 	andeq	r0, r1, fp, lsl #24
 8cc:	00230200 	eoreq	r0, r3, r0, lsl #4
 8d0:	0063700b 	rsbeq	r7, r3, fp
 8d4:	010c0c03 	tsteq	ip, r3, lsl #24
 8d8:	23020000 	movwcs	r0, #8192	; 0x2000
 8dc:	00560c04 	subseq	r0, r6, r4, lsl #24
 8e0:	0d030000 	stceq	0, cr0, [r3, #-0]
 8e4:	000000b0 	strheq	r0, [r0], -r0	; <UNPREDICTABLE>
 8e8:	0b082302 	bleq	2094f8 <_bss_end+0x1ff4f8>
 8ec:	00677261 	rsbeq	r7, r7, r1, ror #4
 8f0:	01120e03 	tsteq	r2, r3, lsl #28
 8f4:	23020000 	movwcs	r0, #8192	; 0x2000
 8f8:	012f0c0c 	teqeq	pc, ip, lsl #24
 8fc:	0f030000 	svceq	0x00030000
 900:	00000114 	andeq	r0, r0, r4, lsl r1
 904:	00102302 	andseq	r2, r0, r2, lsl #6
 908:	004f0405 	subeq	r0, pc, r5, lsl #8
 90c:	040d0000 	streq	r0, [sp], #-0
 910:	00bb0405 	adcseq	r0, fp, r5, lsl #8
 914:	75030000 	strvc	r0, [r3, #-0]
 918:	03000000 	movweq	r0, #0
 91c:	0000bb11 	andeq	fp, r0, r1, lsl fp
 920:	005c0a00 	subseq	r0, ip, r0, lsl #20
 924:	04080000 	streq	r0, [r8], #-0
 928:	00014e08 	andeq	r4, r1, r8, lsl #28
 92c:	00650c00 	rsbeq	r0, r5, r0, lsl #24
 930:	09040000 	stmdbeq	r4, {}	; <UNPREDICTABLE>
 934:	0000014e 	andeq	r0, r0, lr, asr #2
 938:	0c002302 	stceq	3, cr2, [r0], {2}
 93c:	0000013f 	andeq	r0, r0, pc, lsr r1
 940:	014e0a04 	cmpeq	lr, r4, lsl #20
 944:	23020000 	movwcs	r0, #8192	; 0x2000
 948:	04050004 	streq	r0, [r5], #-4
 94c:	0000011a 	andeq	r0, r0, sl, lsl r1
 950:	00005c03 	andeq	r5, r0, r3, lsl #24
 954:	250b0400 	strcs	r0, [fp, #-1024]	; 0x400
 958:	0e000001 	cdpeq	0, 0, cr0, cr0, cr1, {0}
 95c:	0002bc01 	andeq	fp, r2, r1, lsl #24
 960:	01040100 	mrseq	r0, (UNDEF: 20)
 964:	000085c0 	andeq	r8, r0, r0, asr #11
 968:	00008664 	andeq	r8, r0, r4, ror #12
 96c:	00000234 	andeq	r0, r0, r4, lsr r2
 970:	0001b101 	andeq	fp, r1, r1, lsl #2
 974:	00660f00 	rsbeq	r0, r6, r0, lsl #30
 978:	00760401 	rsbseq	r0, r6, r1, lsl #8
 97c:	91020000 	mrsls	r0, (UNDEF: 2)
 980:	02b7106c 	adcseq	r1, r7, #108	; 0x6c
 984:	04010000 	streq	r0, [r1], #-0
 988:	00000112 	andeq	r0, r0, r2, lsl r1
 98c:	11689102 	cmnne	r8, r2, lsl #2
 990:	000002ae 	andeq	r0, r0, lr, lsr #5
 994:	014e0701 	cmpeq	lr, r1, lsl #14
 998:	91020000 	mrsls	r0, (UNDEF: 2)
 99c:	d0011274 	andle	r1, r1, r4, ror r2
 9a0:	01000001 	tsteq	r0, r1
 9a4:	00006807 	andeq	r6, r0, r7, lsl #16
 9a8:	00130100 	andseq	r0, r3, r0, lsl #2
 9ac:	a8011400 	stmdage	r1, {sl, ip}
 9b0:	01000002 	tsteq	r0, r2
 9b4:	0086641e 	addeq	r6, r6, lr, lsl r4
 9b8:	0087d400 	addeq	sp, r7, r0, lsl #8
 9bc:	007d0200 	rsbseq	r0, sp, r0, lsl #4
 9c0:	a1011501 	tstge	r1, r1, lsl #10
 9c4:	01000002 	tsteq	r0, r2
 9c8:	0087d44d 	addeq	sp, r7, sp, asr #8
 9cc:	0087f400 	addeq	pc, r7, r0, lsl #8
 9d0:	00026000 	andeq	r6, r2, r0
 9d4:	01160100 	tsteq	r6, r0, lsl #2
 9d8:	0000008f 	andeq	r0, r0, pc, lsl #1
 9dc:	87f45301 	ldrbhi	r5, [r4, r1, lsl #6]!
 9e0:	88480000 	stmdahi	r8, {}^	; <UNPREDICTABLE>
 9e4:	02800000 	addeq	r0, r0, #0
 9e8:	02010000 	andeq	r0, r1, #0
 9ec:	11000002 	tstne	r0, r2
 9f0:	000002cb 	andeq	r0, r0, fp, asr #5
 9f4:	011a5501 	tsteq	sl, r1, lsl #10
 9f8:	91020000 	mrsls	r0, (UNDEF: 2)
 9fc:	b2110064 	andslt	r0, r1, #100	; 0x64
 a00:	04000000 	streq	r0, [r0], #-0
 a04:	00014e06 	andeq	r4, r1, r6, lsl #28
 a08:	20030500 	andcs	r0, r3, r0, lsl #10
 a0c:	11000090 	swpne	r0, r0, [r0]	; <UNPREDICTABLE>
 a10:	00000089 	andeq	r0, r0, r9, lsl #1
 a14:	01540d04 	cmpeq	r4, r4, lsl #26
 a18:	03050000 	movweq	r0, #20480	; 0x5000
 a1c:	00009024 	andeq	r9, r0, r4, lsr #32
 a20:	0000cd11 	andeq	ip, r0, r1, lsl sp
 a24:	4e0b0500 	cfsh32mi	mvfx0, mvfx11, #0
 a28:	05000001 	streq	r0, [r0, #-1]
 a2c:	00902c03 	addseq	r2, r0, r3, lsl #24
	...

Disassembly of section .debug_abbrev:

00000000 <.debug_abbrev>:
   0:	10001101 	andne	r1, r0, r1, lsl #2
   4:	12011106 	andne	r1, r1, #-2147483647	; 0x80000001
   8:	1b080301 	blne	200c14 <_bss_end+0x1f6c14>
   c:	13082508 	movwne	r2, #34056	; 0x8508
  10:	00000005 	andeq	r0, r0, r5
  14:	25011101 	strcs	r1, [r1, #-257]	; 0x101
  18:	030b130e 	movweq	r1, #45838	; 0xb30e
  1c:	110e1b0e 	tstne	lr, lr, lsl #22
  20:	10011201 	andne	r1, r1, r1, lsl #4
  24:	02000006 	andeq	r0, r0, #6
  28:	0b0b0024 	bleq	2c00c0 <_bss_end+0x2b60c0>
  2c:	0e030b3e 	vmoveq.16	d3[0], r0
  30:	16030000 	strne	r0, [r3], -r0
  34:	3a0e0300 	bcc	380c3c <_bss_end+0x376c3c>
  38:	490b3b0b 	stmdbmi	fp, {r0, r1, r3, r8, r9, fp, ip, sp}
  3c:	04000013 	streq	r0, [r0], #-19
  40:	0b0b0024 	bleq	2c00d8 <_bss_end+0x2b60d8>
  44:	08030b3e 	stmdaeq	r3, {r1, r2, r3, r4, r5, r8, r9, fp}
  48:	04050000 	streq	r0, [r5], #-0
  4c:	3a0b0b01 	bcc	2c2c58 <_bss_end+0x2b8c58>
  50:	010b3b0b 	tsteq	fp, fp, lsl #22
  54:	06000013 			; <UNDEFINED> instruction: 0x06000013
  58:	0e030028 	cdpeq	0, 0, cr0, cr3, cr8, {1}
  5c:	00000d1c 	andeq	r0, r0, ip, lsl sp
  60:	03002807 	movweq	r2, #2055	; 0x807
  64:	000d1c08 	andeq	r1, sp, r8, lsl #24
  68:	01130800 	tsteq	r3, r0, lsl #16
  6c:	0b0b0e03 	bleq	2c3880 <_bss_end+0x2b9880>
  70:	0b3b0b3a 	bleq	ec2d60 <_bss_end+0xeb8d60>
  74:	00001301 	andeq	r1, r0, r1, lsl #6
  78:	03000d09 	movweq	r0, #3337	; 0xd09
  7c:	3b0b3a08 	blcc	2ce8a4 <_bss_end+0x2c48a4>
  80:	3813490b 	ldmdacc	r3, {r0, r1, r3, r8, fp, lr}
  84:	0a00000a 	beq	b4 <_start-0x7f4c>
  88:	0e03000d 	cdpeq	0, 0, cr0, cr3, cr13, {0}
  8c:	0b3b0b3a 	bleq	ec2d7c <_bss_end+0xeb8d7c>
  90:	0a381349 	beq	e04dbc <_bss_end+0xdfadbc>
  94:	0f0b0000 	svceq	0x000b0000
  98:	490b0b00 	stmdbmi	fp, {r8, r9, fp}
  9c:	0c000013 	stceq	0, cr0, [r0], {19}
  a0:	0b0b000f 	bleq	2c00e4 <_bss_end+0x2b60e4>
  a4:	2e0d0000 	cdpcs	0, 0, cr0, cr13, cr0, {0}
  a8:	030c3f01 	movweq	r3, #52993	; 0xcf01
  ac:	3b0b3a0e 	blcc	2ce8ec <_bss_end+0x2c48ec>
  b0:	1201110b 	andne	r1, r1, #-1073741822	; 0xc0000002
  b4:	96064001 	strls	r4, [r6], -r1
  b8:	13010c42 	movwne	r0, #7234	; 0x1c42
  bc:	340e0000 	strcc	r0, [lr], #-0
  c0:	3a0e0300 	bcc	380cc8 <_bss_end+0x376cc8>
  c4:	490b3b0b 	stmdbmi	fp, {r0, r1, r3, r8, r9, fp, ip, sp}
  c8:	000a0213 	andeq	r0, sl, r3, lsl r2
  cc:	012e0f00 	teqeq	lr, r0, lsl #30
  d0:	0e030c3f 	mcreq	12, 0, r0, cr3, cr15, {1}
  d4:	0b3b0b3a 	bleq	ec2dc4 <_bss_end+0xeb8dc4>
  d8:	13490c27 	movtne	r0, #39975	; 0x9c27
  dc:	01120111 	tsteq	r2, r1, lsl r1
  e0:	42960640 	addsmi	r0, r6, #67108864	; 0x4000000
  e4:	0013010c 	andseq	r0, r3, ip, lsl #2
  e8:	012e1000 	teqeq	lr, r0
  ec:	0e030c3f 	mcreq	12, 0, r0, cr3, cr15, {1}
  f0:	0b3b0b3a 	bleq	ec2de0 <_bss_end+0xeb8de0>
  f4:	0c3c1349 	ldceq	3, cr1, [ip], #-292	; 0xfffffedc
  f8:	18110000 	ldmdane	r1, {}	; <UNPREDICTABLE>
  fc:	00000000 	andeq	r0, r0, r0
 100:	25011101 	strcs	r1, [r1, #-257]	; 0x101
 104:	030b130e 	movweq	r1, #45838	; 0xb30e
 108:	110e1b0e 	tstne	lr, lr, lsl #22
 10c:	10011201 	andne	r1, r1, r1, lsl #4
 110:	02000006 	andeq	r0, r0, #6
 114:	0c3f002e 	ldceq	0, cr0, [pc], #-184	; 64 <_start-0x7f9c>
 118:	0b3a0e03 	bleq	e8392c <_bss_end+0xe7992c>
 11c:	01110b3b 	tsteq	r1, fp, lsr fp
 120:	06400112 			; <UNDEFINED> instruction: 0x06400112
 124:	000c4296 	muleq	ip, r6, r2
 128:	012e0300 	teqeq	lr, r0, lsl #6
 12c:	0e030c3f 	mcreq	12, 0, r0, cr3, cr15, {1}
 130:	0b3b0b3a 	bleq	ec2e20 <_bss_end+0xeb8e20>
 134:	01120111 	tsteq	r2, r1, lsl r1
 138:	42960640 	addsmi	r0, r6, #67108864	; 0x4000000
 13c:	0013010c 	andseq	r0, r3, ip, lsl #2
 140:	00340400 	eorseq	r0, r4, r0, lsl #8
 144:	0b3a0803 	bleq	e82158 <_bss_end+0xe78158>
 148:	13490b3b 	movtne	r0, #39739	; 0x9b3b
 14c:	00000a02 	andeq	r0, r0, r2, lsl #20
 150:	0b002405 	bleq	916c <heap+0x138>
 154:	030b3e0b 	movweq	r3, #48651	; 0xbe0b
 158:	0600000e 	streq	r0, [r0], -lr
 15c:	0c3f012e 	ldfeqs	f0, [pc], #-184	; ac <_start-0x7f54>
 160:	0b3a0e03 	bleq	e83974 <_bss_end+0xe79974>
 164:	01110b3b 	tsteq	r1, fp, lsr fp
 168:	06400112 			; <UNDEFINED> instruction: 0x06400112
 16c:	000c4296 	muleq	ip, r6, r2
 170:	11010000 	mrsne	r0, (UNDEF: 1)
 174:	130e2501 	movwne	r2, #58625	; 0xe501
 178:	1b0e030b 	blne	380dac <_bss_end+0x376dac>
 17c:	1201110e 	andne	r1, r1, #-2147483645	; 0x80000003
 180:	00061001 	andeq	r1, r6, r1
 184:	00240200 	eoreq	r0, r4, r0, lsl #4
 188:	0b3e0b0b 	bleq	f82dbc <_bss_end+0xf78dbc>
 18c:	00000e03 	andeq	r0, r0, r3, lsl #28
 190:	03001603 	movweq	r1, #1539	; 0x603
 194:	3b0b3a0e 	blcc	2ce9d4 <_bss_end+0x2c49d4>
 198:	0013490b 	andseq	r4, r3, fp, lsl #18
 19c:	00240400 	eoreq	r0, r4, r0, lsl #8
 1a0:	0b3e0b0b 	bleq	f82dd4 <_bss_end+0xf78dd4>
 1a4:	00000803 	andeq	r0, r0, r3, lsl #16
 1a8:	3f012e05 	svccc	0x00012e05
 1ac:	3a0e030c 	bcc	380de4 <_bss_end+0x376de4>
 1b0:	270b3b0b 	strcs	r3, [fp, -fp, lsl #22]
 1b4:	1113490c 	tstne	r3, ip, lsl #18
 1b8:	40011201 	andmi	r1, r1, r1, lsl #4
 1bc:	0c429606 	mcrreq	6, 0, r9, r2, cr6
 1c0:	00001301 	andeq	r1, r0, r1, lsl #6
 1c4:	03000506 	movweq	r0, #1286	; 0x506
 1c8:	3b0b3a0e 	blcc	2cea08 <_bss_end+0x2c4a08>
 1cc:	0213490b 	andseq	r4, r3, #180224	; 0x2c000
 1d0:	0700000a 	streq	r0, [r0, -sl]
 1d4:	0e030034 	mcreq	0, 0, r0, cr3, cr4, {1}
 1d8:	0b3b0b3a 	bleq	ec2ec8 <_bss_end+0xeb8ec8>
 1dc:	0a021349 	beq	84f08 <_bss_end+0x7af08>
 1e0:	0b080000 	bleq	2001e8 <_bss_end+0x1f61e8>
 1e4:	00065501 	andeq	r5, r6, r1, lsl #10
 1e8:	000f0900 	andeq	r0, pc, r0, lsl #18
 1ec:	13490b0b 	movtne	r0, #39691	; 0x9b0b
 1f0:	2e0a0000 	cdpcs	0, 0, cr0, cr10, cr0, {0}
 1f4:	030c3f01 	movweq	r3, #52993	; 0xcf01
 1f8:	3b0b3a0e 	blcc	2cea38 <_bss_end+0x2c4a38>
 1fc:	110c270b 	tstne	ip, fp, lsl #14
 200:	40011201 	andmi	r1, r1, r1, lsl #4
 204:	0c429706 	mcrreq	7, 0, r9, r2, cr6
 208:	00001301 	andeq	r1, r0, r1, lsl #6
 20c:	4901010b 	stmdbmi	r1, {r0, r1, r3, r8}
 210:	00130113 	andseq	r0, r3, r3, lsl r1
 214:	00210c00 	eoreq	r0, r1, r0, lsl #24
 218:	052f1349 	streq	r1, [pc, #-841]!	; fffffed7 <_bss_end+0xffff5ed7>
 21c:	340d0000 	strcc	r0, [sp], #-0
 220:	3a0e0300 	bcc	380e28 <_bss_end+0x376e28>
 224:	490b3b0b 	stmdbmi	fp, {r0, r1, r3, r8, r9, fp, ip, sp}
 228:	020c3f13 	andeq	r3, ip, #76	; 0x4c
 22c:	0000000a 	andeq	r0, r0, sl
 230:	25011101 	strcs	r1, [r1, #-257]	; 0x101
 234:	030b130e 	movweq	r1, #45838	; 0xb30e
 238:	110e1b0e 	tstne	lr, lr, lsl #22
 23c:	10011201 	andne	r1, r1, r1, lsl #4
 240:	02000006 	andeq	r0, r0, #6
 244:	0b0b0024 	bleq	2c02dc <_bss_end+0x2b62dc>
 248:	0e030b3e 	vmoveq.16	d3[0], r0
 24c:	16030000 	strne	r0, [r3], -r0
 250:	3a0e0300 	bcc	380e58 <_bss_end+0x376e58>
 254:	490b3b0b 	stmdbmi	fp, {r0, r1, r3, r8, r9, fp, ip, sp}
 258:	04000013 	streq	r0, [r0], #-19
 25c:	0b0b0024 	bleq	2c02f4 <_bss_end+0x2b62f4>
 260:	08030b3e 	stmdaeq	r3, {r1, r2, r3, r4, r5, r8, r9, fp}
 264:	0f050000 	svceq	0x00050000
 268:	490b0b00 	stmdbmi	fp, {r8, r9, fp}
 26c:	06000013 			; <UNDEFINED> instruction: 0x06000013
 270:	0c270015 	stceq	0, cr0, [r7], #-84	; 0xffffffac
 274:	04070000 	streq	r0, [r7], #-0
 278:	3a0b0b01 	bcc	2c2e84 <_bss_end+0x2b8e84>
 27c:	010b3b0b 	tsteq	fp, fp, lsl #22
 280:	08000013 	stmdaeq	r0, {r0, r1, r4}
 284:	0e030028 	cdpeq	0, 0, cr0, cr3, cr8, {1}
 288:	00000d1c 	andeq	r0, r0, ip, lsl sp
 28c:	03002809 	movweq	r2, #2057	; 0x809
 290:	000d1c08 	andeq	r1, sp, r8, lsl #24
 294:	01130a00 	tsteq	r3, r0, lsl #20
 298:	0b0b0e03 	bleq	2c3aac <_bss_end+0x2b9aac>
 29c:	0b3b0b3a 	bleq	ec2f8c <_bss_end+0xeb8f8c>
 2a0:	00001301 	andeq	r1, r0, r1, lsl #6
 2a4:	03000d0b 	movweq	r0, #3339	; 0xd0b
 2a8:	3b0b3a08 	blcc	2cead0 <_bss_end+0x2c4ad0>
 2ac:	3813490b 	ldmdacc	r3, {r0, r1, r3, r8, fp, lr}
 2b0:	0c00000a 	stceq	0, cr0, [r0], {10}
 2b4:	0e03000d 	cdpeq	0, 0, cr0, cr3, cr13, {0}
 2b8:	0b3b0b3a 	bleq	ec2fa8 <_bss_end+0xeb8fa8>
 2bc:	0a381349 	beq	e04fe8 <_bss_end+0xdfafe8>
 2c0:	0f0d0000 	svceq	0x000d0000
 2c4:	000b0b00 	andeq	r0, fp, r0, lsl #22
 2c8:	012e0e00 	teqeq	lr, r0, lsl #28
 2cc:	0e030c3f 	mcreq	12, 0, r0, cr3, cr15, {1}
 2d0:	0b3b0b3a 	bleq	ec2fc0 <_bss_end+0xeb8fc0>
 2d4:	01110c27 	tsteq	r1, r7, lsr #24
 2d8:	06400112 			; <UNDEFINED> instruction: 0x06400112
 2dc:	000c4296 	muleq	ip, r6, r2
 2e0:	00050f00 	andeq	r0, r5, r0, lsl #30
 2e4:	0b3a0803 	bleq	e822f8 <_bss_end+0xe782f8>
 2e8:	13490b3b 	movtne	r0, #39739	; 0x9b3b
 2ec:	00000a02 	andeq	r0, r0, r2, lsl #20
 2f0:	03000510 	movweq	r0, #1296	; 0x510
 2f4:	3b0b3a0e 	blcc	2ceb34 <_bss_end+0x2c4b34>
 2f8:	0213490b 	andseq	r4, r3, #180224	; 0x2c000
 2fc:	0000000a 	andeq	r0, r0, sl
 300:	25011101 	strcs	r1, [r1, #-257]	; 0x101
 304:	030b130e 	movweq	r1, #45838	; 0xb30e
 308:	100e1b0e 	andne	r1, lr, lr, lsl #22
 30c:	02000006 	andeq	r0, r0, #6
 310:	0b0b0024 	bleq	2c03a8 <_bss_end+0x2b63a8>
 314:	0e030b3e 	vmoveq.16	d3[0], r0
 318:	16030000 	strne	r0, [r3], -r0
 31c:	3a0e0300 	bcc	380f24 <_bss_end+0x376f24>
 320:	490b3b0b 	stmdbmi	fp, {r0, r1, r3, r8, r9, fp, ip, sp}
 324:	04000013 	streq	r0, [r0], #-19
 328:	0b0b0024 	bleq	2c03c0 <_bss_end+0x2b63c0>
 32c:	08030b3e 	stmdaeq	r3, {r1, r2, r3, r4, r5, r8, r9, fp}
 330:	04050000 	streq	r0, [r5], #-0
 334:	3a0b0b01 	bcc	2c2f40 <_bss_end+0x2b8f40>
 338:	010b3b0b 	tsteq	fp, fp, lsl #22
 33c:	06000013 			; <UNDEFINED> instruction: 0x06000013
 340:	0e030028 	cdpeq	0, 0, cr0, cr3, cr8, {1}
 344:	00000d1c 	andeq	r0, r0, ip, lsl sp
 348:	03002807 	movweq	r2, #2055	; 0x807
 34c:	000d1c08 	andeq	r1, sp, r8, lsl #24
 350:	01130800 	tsteq	r3, r0, lsl #16
 354:	0b0b0e03 	bleq	2c3b68 <_bss_end+0x2b9b68>
 358:	0b3b0b3a 	bleq	ec3048 <_bss_end+0xeb9048>
 35c:	00001301 	andeq	r1, r0, r1, lsl #6
 360:	03000d09 	movweq	r0, #3337	; 0xd09
 364:	3b0b3a08 	blcc	2ceb8c <_bss_end+0x2c4b8c>
 368:	3813490b 	ldmdacc	r3, {r0, r1, r3, r8, fp, lr}
 36c:	0a00000a 	beq	39c <_start-0x7c64>
 370:	0e03000d 	cdpeq	0, 0, cr0, cr3, cr13, {0}
 374:	0b3b0b3a 	bleq	ec3064 <_bss_end+0xeb9064>
 378:	0a381349 	beq	e050a4 <_bss_end+0xdfb0a4>
 37c:	0f0b0000 	svceq	0x000b0000
 380:	490b0b00 	stmdbmi	fp, {r8, r9, fp}
 384:	0c000013 	stceq	0, cr0, [r0], {19}
 388:	0b0b000f 	bleq	2c03cc <_bss_end+0x2b63cc>
 38c:	340d0000 	strcc	r0, [sp], #-0
 390:	3a0e0300 	bcc	380f98 <_bss_end+0x376f98>
 394:	490b3b0b 	stmdbmi	fp, {r0, r1, r3, r8, r9, fp, ip, sp}
 398:	000a0213 	andeq	r0, sl, r3, lsl r2
 39c:	11010000 	mrsne	r0, (UNDEF: 1)
 3a0:	130e2501 	movwne	r2, #58625	; 0xe501
 3a4:	1b0e030b 	blne	380fd8 <_bss_end+0x376fd8>
 3a8:	1201110e 	andne	r1, r1, #-2147483645	; 0x80000003
 3ac:	00061001 	andeq	r1, r6, r1
 3b0:	00240200 	eoreq	r0, r4, r0, lsl #4
 3b4:	0b3e0b0b 	bleq	f82fe8 <_bss_end+0xf78fe8>
 3b8:	00000e03 	andeq	r0, r0, r3, lsl #28
 3bc:	03001603 	movweq	r1, #1539	; 0x603
 3c0:	3b0b3a0e 	blcc	2cec00 <_bss_end+0x2c4c00>
 3c4:	0013490b 	andseq	r4, r3, fp, lsl #18
 3c8:	00240400 	eoreq	r0, r4, r0, lsl #8
 3cc:	0b3e0b0b 	bleq	f83000 <_bss_end+0xf79000>
 3d0:	00000803 	andeq	r0, r0, r3, lsl #16
 3d4:	0b000f05 	bleq	3ff0 <_start-0x4010>
 3d8:	0013490b 	andseq	r4, r3, fp, lsl #18
 3dc:	00150600 	andseq	r0, r5, r0, lsl #12
 3e0:	00000c27 	andeq	r0, r0, r7, lsr #24
 3e4:	0b010407 	bleq	41408 <_bss_end+0x37408>
 3e8:	3b0b3a0b 	blcc	2cec1c <_bss_end+0x2c4c1c>
 3ec:	0013010b 	andseq	r0, r3, fp, lsl #2
 3f0:	00280800 	eoreq	r0, r8, r0, lsl #16
 3f4:	0d1c0e03 	ldceq	14, cr0, [ip, #-12]
 3f8:	28090000 	stmdacs	r9, {}	; <UNPREDICTABLE>
 3fc:	1c080300 	stcne	3, cr0, [r8], {-0}
 400:	0a00000d 	beq	43c <_start-0x7bc4>
 404:	0e030113 	mcreq	1, 0, r0, cr3, cr3, {0}
 408:	0b3a0b0b 	bleq	e8303c <_bss_end+0xe7903c>
 40c:	13010b3b 	movwne	r0, #6971	; 0x1b3b
 410:	0d0b0000 	stceq	0, cr0, [fp, #-0]
 414:	3a080300 	bcc	20101c <_bss_end+0x1f701c>
 418:	490b3b0b 	stmdbmi	fp, {r0, r1, r3, r8, r9, fp, ip, sp}
 41c:	000a3813 	andeq	r3, sl, r3, lsl r8
 420:	000d0c00 	andeq	r0, sp, r0, lsl #24
 424:	0b3a0e03 	bleq	e83c38 <_bss_end+0xe79c38>
 428:	13490b3b 	movtne	r0, #39739	; 0x9b3b
 42c:	00000a38 	andeq	r0, r0, r8, lsr sl
 430:	0b000f0d 	bleq	406c <_start-0x3f94>
 434:	0e00000b 	cdpeq	0, 0, cr0, cr0, cr11, {0}
 438:	0c3f012e 	ldfeqs	f0, [pc], #-184	; 388 <_start-0x7c78>
 43c:	0b3a0e03 	bleq	e83c50 <_bss_end+0xe79c50>
 440:	0c270b3b 	stceq	11, cr0, [r7], #-236	; 0xffffff14
 444:	01120111 	tsteq	r2, r1, lsl r1
 448:	42960640 	addsmi	r0, r6, #67108864	; 0x4000000
 44c:	0013010c 	andseq	r0, r3, ip, lsl #2
 450:	00050f00 	andeq	r0, r5, r0, lsl #30
 454:	0b3a0803 	bleq	e82468 <_bss_end+0xe78468>
 458:	13490b3b 	movtne	r0, #39739	; 0x9b3b
 45c:	00000a02 	andeq	r0, r0, r2, lsl #20
 460:	03000510 	movweq	r0, #1296	; 0x510
 464:	3b0b3a0e 	blcc	2ceca4 <_bss_end+0x2c4ca4>
 468:	0213490b 	andseq	r4, r3, #180224	; 0x2c000
 46c:	1100000a 	tstne	r0, sl
 470:	0e030034 	mcreq	0, 0, r0, cr3, cr4, {1}
 474:	0b3b0b3a 	bleq	ec3164 <_bss_end+0xeb9164>
 478:	0a021349 	beq	851a4 <_bss_end+0x7b1a4>
 47c:	2e120000 	cdpcs	0, 1, cr0, cr2, cr0, {0}
 480:	030c3f01 	movweq	r3, #52993	; 0xcf01
 484:	3b0b3a0e 	blcc	2cecc4 <_bss_end+0x2c4cc4>
 488:	3c13490b 	ldccc	9, cr4, [r3], {11}
 48c:	1300000c 	movwne	r0, #12
 490:	00000018 	andeq	r0, r0, r8, lsl r0
 494:	3f002e14 	svccc	0x00002e14
 498:	3a0e030c 	bcc	3810d0 <_bss_end+0x3770d0>
 49c:	110b3b0b 	tstne	fp, fp, lsl #22
 4a0:	40011201 	andmi	r1, r1, r1, lsl #4
 4a4:	0c42970a 	mcrreq	7, 0, r9, r2, cr10
 4a8:	2e150000 	cdpcs	0, 1, cr0, cr5, cr0, {0}
 4ac:	030c3f00 	movweq	r3, #52992	; 0xcf00
 4b0:	3b0b3a0e 	blcc	2cecf0 <_bss_end+0x2c4cf0>
 4b4:	1201110b 	andne	r1, r1, #-1073741822	; 0xc0000002
 4b8:	96064001 	strls	r4, [r6], -r1
 4bc:	00000c42 	andeq	r0, r0, r2, asr #24
 4c0:	3f012e16 	svccc	0x00012e16
 4c4:	3a0e030c 	bcc	3810fc <_bss_end+0x3770fc>
 4c8:	110b3b0b 	tstne	fp, fp, lsl #22
 4cc:	40011201 	andmi	r1, r1, r1, lsl #4
 4d0:	0c429606 	mcrreq	6, 0, r9, r2, cr6
 4d4:	00001301 	andeq	r1, r0, r1, lsl #6
	...

Disassembly of section .debug_aranges:

00000000 <.debug_aranges>:
   0:	0000001c 	andeq	r0, r0, ip, lsl r0
   4:	00000002 	andeq	r0, r0, r2
   8:	00040000 	andeq	r0, r4, r0
   c:	00000000 	andeq	r0, r0, r0
  10:	00008000 	andeq	r8, r0, r0
  14:	00000078 	andeq	r0, r0, r8, ror r0
	...
  20:	0000001c 	andeq	r0, r0, ip, lsl r0
  24:	006f0002 	rsbeq	r0, pc, r2
  28:	00040000 	andeq	r0, r4, r0
  2c:	00000000 	andeq	r0, r0, r0
  30:	00008078 	andeq	r8, r0, r8, ror r0
  34:	000000ac 	andeq	r0, r0, ip, lsr #1
	...
  40:	0000001c 	andeq	r0, r0, ip, lsl r0
  44:	026d0002 	rsbeq	r0, sp, #2
  48:	00040000 	andeq	r0, r4, r0
  4c:	00000000 	andeq	r0, r0, r0
  50:	00008124 	andeq	r8, r0, r4, lsr #2
  54:	00000134 	andeq	r0, r0, r4, lsr r1
	...
  60:	0000001c 	andeq	r0, r0, ip, lsl r0
  64:	03450002 	movteq	r0, #20482	; 0x5002
  68:	00040000 	andeq	r0, r4, r0
  6c:	00000000 	andeq	r0, r0, r0
  70:	00008258 	andeq	r8, r0, r8, asr r2
  74:	00000300 	andeq	r0, r0, r0, lsl #6
	...
  80:	0000001c 	andeq	r0, r0, ip, lsl r0
  84:	051c0002 	ldreq	r0, [ip, #-2]
  88:	00040000 	andeq	r0, r4, r0
  8c:	00000000 	andeq	r0, r0, r0
  90:	00008558 	andeq	r8, r0, r8, asr r5
  94:	00000068 	andeq	r0, r0, r8, rrx
	...
  a0:	00000014 	andeq	r0, r0, r4, lsl r0
  a4:	06840002 	streq	r0, [r4], r2
  a8:	00040000 	andeq	r0, r4, r0
	...
  b8:	0000001c 	andeq	r0, r0, ip, lsl r0
  bc:	07fc0002 	ldrbeq	r0, [ip, r2]!
  c0:	00040000 	andeq	r0, r4, r0
  c4:	00000000 	andeq	r0, r0, r0
  c8:	000085c0 	andeq	r8, r0, r0, asr #11
  cc:	00000288 	andeq	r0, r0, r8, lsl #5
	...

Disassembly of section .debug_loc:

00000000 <.debug_loc>:
   0:	00000000 	andeq	r0, r0, r0
   4:	00000004 	andeq	r0, r0, r4
   8:	007d0002 	rsbseq	r0, sp, r2
   c:	00000004 	andeq	r0, r0, r4
  10:	00000008 	andeq	r0, r0, r8
  14:	047d0002 	ldrbteq	r0, [sp], #-2
  18:	00000008 	andeq	r0, r0, r8
  1c:	0000003c 	andeq	r0, r0, ip, lsr r0
  20:	107d0002 	rsbsne	r0, sp, r2
	...
  2c:	0000003c 	andeq	r0, r0, ip, lsr r0
  30:	00000040 	andeq	r0, r0, r0, asr #32
  34:	007d0002 	rsbseq	r0, sp, r2
  38:	00000040 	andeq	r0, r0, r0, asr #32
  3c:	00000044 	andeq	r0, r0, r4, asr #32
  40:	047d0002 	ldrbteq	r0, [sp], #-2
  44:	00000044 	andeq	r0, r0, r4, asr #32
  48:	00000078 	andeq	r0, r0, r8, ror r0
  4c:	107d0002 	rsbsne	r0, sp, r2
	...
  58:	00000078 	andeq	r0, r0, r8, ror r0
  5c:	0000007c 	andeq	r0, r0, ip, ror r0
  60:	007d0002 	rsbseq	r0, sp, r2
  64:	0000007c 	andeq	r0, r0, ip, ror r0
  68:	000000ac 	andeq	r0, r0, ip, lsr #1
  6c:	087d0002 	ldmdaeq	sp!, {r1}^
	...
  7c:	00000004 	andeq	r0, r0, r4
  80:	007d0002 	rsbseq	r0, sp, r2
  84:	00000004 	andeq	r0, r0, r4
  88:	00000018 	andeq	r0, r0, r8, lsl r0
  8c:	087d0002 	ldmdaeq	sp!, {r1}^
	...
  98:	00000018 	andeq	r0, r0, r8, lsl r0
  9c:	0000001c 	andeq	r0, r0, ip, lsl r0
  a0:	007d0002 	rsbseq	r0, sp, r2
  a4:	0000001c 	andeq	r0, r0, ip, lsl r0
  a8:	00000030 	andeq	r0, r0, r0, lsr r0
  ac:	087d0002 	ldmdaeq	sp!, {r1}^
	...
  b8:	00000030 	andeq	r0, r0, r0, lsr r0
  bc:	00000034 	andeq	r0, r0, r4, lsr r0
  c0:	007d0002 	rsbseq	r0, sp, r2
  c4:	00000034 	andeq	r0, r0, r4, lsr r0
  c8:	00000038 	andeq	r0, r0, r8, lsr r0
  cc:	047d0002 	ldrbteq	r0, [sp], #-2
  d0:	00000038 	andeq	r0, r0, r8, lsr r0
  d4:	00000070 	andeq	r0, r0, r0, ror r0
  d8:	107d0002 	rsbsne	r0, sp, r2
	...
  e4:	00000070 	andeq	r0, r0, r0, ror r0
  e8:	00000074 	andeq	r0, r0, r4, ror r0
  ec:	007d0002 	rsbseq	r0, sp, r2
  f0:	00000074 	andeq	r0, r0, r4, ror r0
  f4:	00000088 	andeq	r0, r0, r8, lsl #1
  f8:	087d0002 	ldmdaeq	sp!, {r1}^
	...
 104:	00000088 	andeq	r0, r0, r8, lsl #1
 108:	0000008c 	andeq	r0, r0, ip, lsl #1
 10c:	007d0002 	rsbseq	r0, sp, r2
 110:	0000008c 	andeq	r0, r0, ip, lsl #1
 114:	000000a0 	andeq	r0, r0, r0, lsr #1
 118:	087d0002 	ldmdaeq	sp!, {r1}^
	...
 124:	000000a0 	andeq	r0, r0, r0, lsr #1
 128:	000000a4 	andeq	r0, r0, r4, lsr #1
 12c:	007d0002 	rsbseq	r0, sp, r2
 130:	000000a4 	andeq	r0, r0, r4, lsr #1
 134:	000000a8 	andeq	r0, r0, r8, lsr #1
 138:	047d0002 	ldrbteq	r0, [sp], #-2
 13c:	000000a8 	andeq	r0, r0, r8, lsr #1
 140:	00000134 	andeq	r0, r0, r4, lsr r1
 144:	107d0002 	rsbsne	r0, sp, r2
	...
 154:	00000004 	andeq	r0, r0, r4
 158:	007d0002 	rsbseq	r0, sp, r2
 15c:	00000004 	andeq	r0, r0, r4
 160:	00000008 	andeq	r0, r0, r8
 164:	047d0002 	ldrbteq	r0, [sp], #-2
 168:	00000008 	andeq	r0, r0, r8
 16c:	00000148 	andeq	r0, r0, r8, asr #2
 170:	207d0002 	rsbscs	r0, sp, r2
	...
 17c:	00000148 	andeq	r0, r0, r8, asr #2
 180:	0000014c 	andeq	r0, r0, ip, asr #2
 184:	007d0002 	rsbseq	r0, sp, r2
 188:	0000014c 	andeq	r0, r0, ip, asr #2
 18c:	00000150 	andeq	r0, r0, r0, asr r1
 190:	047d0002 	ldrbteq	r0, [sp], #-2
 194:	00000150 	andeq	r0, r0, r0, asr r1
 198:	000001a0 	andeq	r0, r0, r0, lsr #3
 19c:	107d0002 	rsbsne	r0, sp, r2
	...
 1a8:	000001a0 	andeq	r0, r0, r0, lsr #3
 1ac:	000001a4 	andeq	r0, r0, r4, lsr #3
 1b0:	007d0002 	rsbseq	r0, sp, r2
 1b4:	000001a4 	andeq	r0, r0, r4, lsr #3
 1b8:	00000220 	andeq	r0, r0, r0, lsr #4
 1bc:	087d0002 	ldmdaeq	sp!, {r1}^
	...
 1c8:	00000220 	andeq	r0, r0, r0, lsr #4
 1cc:	00000224 	andeq	r0, r0, r4, lsr #4
 1d0:	007d0002 	rsbseq	r0, sp, r2
 1d4:	00000224 	andeq	r0, r0, r4, lsr #4
 1d8:	000002c4 	andeq	r0, r0, r4, asr #5
 1dc:	087d0002 	ldmdaeq	sp!, {r1}^
	...
 1e8:	000002c4 	andeq	r0, r0, r4, asr #5
 1ec:	000002c8 	andeq	r0, r0, r8, asr #5
 1f0:	007d0002 	rsbseq	r0, sp, r2
 1f4:	000002c8 	andeq	r0, r0, r8, asr #5
 1f8:	00000300 	andeq	r0, r0, r0, lsl #6
 1fc:	087d0002 	ldmdaeq	sp!, {r1}^
	...
 20c:	00000004 	andeq	r0, r0, r4
 210:	007d0002 	rsbseq	r0, sp, r2
 214:	00000004 	andeq	r0, r0, r4
 218:	00000008 	andeq	r0, r0, r8
 21c:	047d0002 	ldrbteq	r0, [sp], #-2
 220:	00000008 	andeq	r0, r0, r8
 224:	00000068 	andeq	r0, r0, r8, rrx
 228:	187d0002 	ldmdane	sp!, {r1}^
	...
 238:	00000004 	andeq	r0, r0, r4
 23c:	007d0002 	rsbseq	r0, sp, r2
 240:	00000004 	andeq	r0, r0, r4
 244:	00000008 	andeq	r0, r0, r8
 248:	047d0002 	ldrbteq	r0, [sp], #-2
 24c:	00000008 	andeq	r0, r0, r8
 250:	000000a4 	andeq	r0, r0, r4, lsr #1
 254:	187d0002 	ldmdane	sp!, {r1}^
	...
 260:	00000214 	andeq	r0, r0, r4, lsl r2
 264:	00000218 	andeq	r0, r0, r8, lsl r2
 268:	007d0002 	rsbseq	r0, sp, r2
 26c:	00000218 	andeq	r0, r0, r8, lsl r2
 270:	00000234 	andeq	r0, r0, r4, lsr r2
 274:	087d0002 	ldmdaeq	sp!, {r1}^
	...
 280:	00000234 	andeq	r0, r0, r4, lsr r2
 284:	00000238 	andeq	r0, r0, r8, lsr r2
 288:	007d0002 	rsbseq	r0, sp, r2
 28c:	00000238 	andeq	r0, r0, r8, lsr r2
 290:	0000023c 	andeq	r0, r0, ip, lsr r2
 294:	047d0002 	ldrbteq	r0, [sp], #-2
 298:	0000023c 	andeq	r0, r0, ip, lsr r2
 29c:	00000288 	andeq	r0, r0, r8, lsl #5
 2a0:	207d0002 	rsbscs	r0, sp, r2
	...

Disassembly of section .debug_str:

00000000 <.debug_str>:
   0:	636e7566 	cmnvs	lr, #427819008	; 0x19800000
   4:	70630041 	rsbvc	r0, r3, r1, asr #32
   8:	63004174 	movwvs	r4, #372	; 0x174
   c:	00427470 	subeq	r7, r2, r0, ror r4
  10:	61745370 	cmnvs	r4, r0, ror r3
  14:	2f006574 	svccs	0x00006574
  18:	656d6f68 	strbvs	r6, [sp, #-3944]!	; 0xf68
  1c:	676f6d2f 	strbvs	r6, [pc, -pc, lsr #26]!
  20:	2f726569 	svccs	0x00726569
  24:	75636f44 	strbvc	r6, [r3, #-3908]!	; 0xf44
  28:	746e656d 	strbtvc	r6, [lr], #-1389	; 0x56d
  2c:	696d2f73 	stmdbvs	sp!, {r0, r1, r4, r5, r6, r8, r9, sl, fp, sp}^
  30:	4f2d696e 	svcmi	0x002d696e
  34:	50522d53 	subspl	r2, r2, r3, asr sp
  38:	726f2f49 	rsbvc	r2, pc, #292	; 0x124
  3c:	6e6e6f64 	cdpvs	15, 6, cr6, cr14, cr4, {3}
  40:	65636e61 	strbvs	r6, [r3, #-3681]!	; 0xe61
  44:	746e656d 	strbtvc	r6, [lr], #-1389	; 0x56d
  48:	6c6f635f 	stclvs	3, cr6, [pc], #-380	; fffffed4 <_bss_end+0xffff5ed4>
  4c:	6f62616c 	svcvs	0x0062616c
  50:	69746172 	ldmdbvs	r4!, {r1, r4, r5, r6, r8, sp, lr}^
  54:	74730066 	ldrbtvc	r0, [r3], #-102	; 0x66
  58:	00657461 	rsbeq	r7, r5, r1, ror #8
  5c:	5f626370 	svcpl	0x00626370
  60:	7473696c 	ldrbtvc	r6, [r3], #-2412	; 0x96c
  64:	72696600 	rsbvc	r6, r9, #0
  68:	6e007473 	mcrvs	4, 0, r7, cr0, cr3, {3}
  6c:	616d746f 	cmnvs	sp, pc, ror #8
  70:	632e6e69 	teqvs	lr, #1680	; 0x690
  74:	62637000 	rsbvs	r7, r3, #0
  78:	7500735f 	strvc	r7, [r0, #-863]	; 0x35f
  7c:	6769736e 	strbvs	r7, [r9, -lr, ror #6]!
  80:	2064656e 	rsbcs	r6, r4, lr, ror #10
  84:	72616863 	rsbvc	r6, r1, #6488064	; 0x630000
  88:	694c7000 	stmdbvs	ip, {ip, sp, lr}^
  8c:	73007473 	movwvc	r7, #1139	; 0x473
  90:	74726174 	ldrbtvc	r6, [r2], #-372	; 0x174
  94:	6863735f 	stmdavs	r3!, {r0, r1, r2, r3, r4, r6, r8, r9, ip, sp, lr}^
  98:	6c756465 	cfldrdvs	mvd6, [r5], #-404	; 0xfffffe6c
  9c:	73007265 	movwvc	r7, #613	; 0x265
  a0:	74726f68 	ldrbtvc	r6, [r2], #-3944	; 0xf68
  a4:	736e7520 	cmnvc	lr, #134217728	; 0x8000000
  a8:	656e6769 	strbvs	r6, [lr, #-1897]!	; 0x769
  ac:	6e692064 	cdpvs	0, 6, cr2, cr9, cr4, {3}
  b0:	656e0074 	strbvs	r0, [lr, #-116]!	; 0x74
  b4:	725f7478 	subsvc	r7, pc, #2013265920	; 0x78000000
  b8:	696e6e75 	stmdbvs	lr!, {r0, r2, r4, r5, r6, r9, sl, fp, sp, lr}^
  bc:	6600676e 	strvs	r6, [r0], -lr, ror #14
  c0:	42636e75 	rsbmi	r6, r3, #1872	; 0x750
  c4:	4f4c4200 	svcmi	0x004c4200
  c8:	44454b43 	strbmi	r4, [r5], #-2883	; 0xb43
  cc:	72756300 	rsbsvc	r6, r5, #0
  d0:	746e6572 	strbtvc	r6, [lr], #-1394	; 0x572
  d4:	6f72705f 	svcvs	0x0072705f
  d8:	73736563 	cmnvc	r3, #415236096	; 0x18c00000
  dc:	6e6f6c00 	cdpvs	12, 6, cr6, cr15, cr0, {0}
  e0:	6f6c2067 	svcvs	0x006c2067
  e4:	7520676e 	strvc	r6, [r0, #-1902]!	; 0x76e
  e8:	6769736e 	strbvs	r7, [r9, -lr, ror #6]!
  ec:	2064656e 	rsbcs	r6, r4, lr, ror #10
  f0:	00746e69 	rsbseq	r6, r4, r9, ror #28
  f4:	44414552 	strbmi	r4, [r1], #-1362	; 0x552
  f8:	6f6c0059 	svcvs	0x006c0059
  fc:	6c20676e 	stcvs	7, cr6, [r0], #-440	; 0xfffffe48
 100:	20676e6f 	rsbcs	r6, r7, pc, ror #28
 104:	00746e69 	rsbseq	r6, r4, r9, ror #28
 108:	20554e47 	subscs	r4, r5, r7, asr #28
 10c:	2e342043 	cdpcs	0, 3, cr2, cr4, cr3, {2}
 110:	00312e37 	eorseq	r2, r1, r7, lsr lr
 114:	726f6873 	rsbvc	r6, pc, #7536640	; 0x730000
 118:	6e692074 	mcrvs	0, 3, r2, cr9, cr4, {3}
 11c:	69750074 	ldmdbvs	r5!, {r2, r4, r5, r6}^
 120:	3233746e 	eorscc	r7, r3, #1845493760	; 0x6e000000
 124:	5200745f 	andpl	r7, r0, #1593835520	; 0x5f000000
 128:	494e4e55 	stmdbmi	lr, {r0, r2, r4, r6, r9, sl, fp, lr}^
 12c:	6e00474e 	cdpvs	7, 0, cr4, cr0, cr14, {2}
 130:	00747865 	rsbseq	r7, r4, r5, ror #16
 134:	4d524554 	cfldr64mi	mvdx4, [r2, #-336]	; 0xfffffeb0
 138:	54414e49 	strbpl	r4, [r1], #-3657	; 0xe49
 13c:	6c004445 	cfstrsvs	mvf4, [r0], {69}	; 0x45
 140:	00747361 	rsbseq	r7, r4, r1, ror #6
 144:	6d746f6e 	ldclvs	15, cr6, [r4, #-440]!	; 0xfffffe48
 148:	006e6961 	rsbeq	r6, lr, r1, ror #18
 14c:	61736964 	cmnvs	r3, r4, ror #18
 150:	5f656c62 	svcpl	0x00656c62
 154:	656d6974 	strbvs	r6, [sp, #-2420]!	; 0x974
 158:	72695f72 	rsbvc	r5, r9, #456	; 0x1c8
 15c:	77680071 			; <UNDEFINED> instruction: 0x77680071
 160:	6c00632e 	stcvs	3, cr6, [r0], {46}	; 0x2e
 164:	6f5f6465 	svcvs	0x005f6465
 168:	6e69006e 	cdpvs	0, 6, cr0, cr9, cr14, {3}
 16c:	685f7469 	ldmdavs	pc, {r0, r3, r5, r6, sl, ip, sp, lr}^	; <UNPREDICTABLE>
 170:	65730077 	ldrbvs	r0, [r3, #-119]!	; 0x77
 174:	656e5f74 	strbvs	r5, [lr, #-3956]!	; 0xf74
 178:	745f7478 	ldrbvc	r7, [pc], #-1144	; 180 <_start-0x7e80>
 17c:	5f6b6369 	svcpl	0x006b6369
 180:	5f646e61 	svcpl	0x00646e61
 184:	62616e65 	rsbvs	r6, r1, #1616	; 0x650
 188:	745f656c 	ldrbvc	r6, [pc], #-1388	; 190 <_start-0x7e70>
 18c:	72656d69 	rsbvc	r6, r5, #6720	; 0x1a40
 190:	7172695f 	cmnvc	r2, pc, asr r9
 194:	64656c00 	strbtvs	r6, [r5], #-3072	; 0xc00
 198:	66666f5f 	uqsaxvs	r6, r6, pc	; <UNPREDICTABLE>
 19c:	6d656d00 	stclvs	13, cr6, [r5, #-0]
 1a0:	5f79726f 	svcpl	0x0079726f
 1a4:	6d656c65 	stclvs	12, cr6, [r5, #-404]!	; 0xfffffe6c
 1a8:	5f746e65 	svcpl	0x00746e65
 1ac:	73690074 	cmnvc	r9, #116	; 0x74
 1b0:	74696e49 	strbtvc	r6, [r9], #-3657	; 0xe49
 1b4:	696c6169 	stmdbvs	ip!, {r0, r3, r5, r6, r8, sp, lr}^
 1b8:	00646573 	rsbeq	r6, r4, r3, ror r5
 1bc:	65657246 	strbvs	r7, [r5, #-582]!	; 0x246
 1c0:	6f6c6c41 	svcvs	0x006c6c41
 1c4:	65746163 	ldrbvs	r6, [r4, #-355]!	; 0x163
 1c8:	6d654d64 	stclvs	13, cr4, [r5, #-400]!	; 0xfffffe70
 1cc:	0079726f 	rsbseq	r7, r9, pc, ror #4
 1d0:	6f6c6c41 	svcvs	0x006c6c41
 1d4:	65746163 	ldrbvs	r6, [r4, #-355]!	; 0x163
 1d8:	6f6d654d 	svcvs	0x006d654d
 1dc:	63007972 	movwvs	r7, #2418	; 0x972
 1e0:	61636e6f 	cmnvs	r3, pc, ror #28
 1e4:	616e6574 	smcvs	58964	; 0xe654
 1e8:	72466574 	subvc	r6, r6, #486539264	; 0x1d000000
 1ec:	6c426565 	cfstr64vs	mvdx6, [r2], {101}	; 0x65
 1f0:	736b636f 	cmnvc	fp, #-1140850687	; 0xbc000001
 1f4:	6c6c6100 	stfvse	f6, [ip], #-0
 1f8:	7461636f 	strbtvc	r6, [r1], #-879	; 0x36f
 1fc:	6d654d65 	stclvs	13, cr4, [r5, #-404]!	; 0xfffffe6c
 200:	2e79726f 	cdpcs	2, 7, cr7, cr9, cr15, {3}
 204:	72630063 	rsbvc	r0, r3, #99	; 0x63
 208:	65746165 	ldrbvs	r6, [r4, #-357]!	; 0x165
 20c:	64616548 	strbtvs	r6, [r1], #-1352	; 0x548
 210:	73007265 	movwvc	r7, #613	; 0x265
 214:	4f657a69 	svcmi	0x00657a69
 218:	65724666 	ldrbvs	r4, [r2, #-1638]!	; 0x666
 21c:	61705365 	cmnvs	r0, r5, ror #6
 220:	61006563 	tstvs	r0, r3, ror #10
 224:	65726464 	ldrbvs	r6, [r2, #-1124]!	; 0x464
 228:	68007373 	stmdavs	r0, {r0, r1, r4, r5, r6, r8, r9, ip, sp, lr}
 22c:	00706165 	rsbseq	r6, r0, r5, ror #2
 230:	657a6973 	ldrbvs	r6, [sl, #-2419]!	; 0x973
 234:	65707974 	ldrbvs	r7, [r0, #-2420]!	; 0x974
 238:	61656800 	cmnvs	r5, r0, lsl #16
 23c:	4e726564 	cdpmi	5, 7, cr6, cr2, cr4, {3}
 240:	50747865 	rsbspl	r7, r4, r5, ror #16
 244:	746e696f 	strbtvc	r6, [lr], #-2415	; 0x96f
 248:	63007265 	movwvs	r7, #613	; 0x265
 24c:	74616572 	strbtvc	r6, [r1], #-1394	; 0x572
 250:	696e4965 	stmdbvs	lr!, {r0, r2, r5, r6, r8, fp, lr}^
 254:	6c616974 	stclvs	9, cr6, [r1], #-464	; 0xfffffe30
 258:	64616548 	strbtvs	r6, [r1], #-1352	; 0x548
 25c:	69007265 	stmdbvs	r0, {r0, r2, r5, r6, r9, ip, sp, lr}
 260:	756f4673 	strbvc	r4, [pc, #-1651]!	; fffffbf5 <_bss_end+0xffff5bf5>
 264:	6600646e 	strvs	r6, [r0], -lr, ror #8
 268:	5f636e75 	svcpl	0x00636e75
 26c:	72700074 	rsbsvc	r0, r0, #116	; 0x74
 270:	7365636f 	cmnvc	r5, #-1140850687	; 0xbc000001
 274:	00632e73 	rsbeq	r2, r3, r3, ror lr
 278:	63617473 	cmnvs	r1, #1929379840	; 0x73000000
 27c:	69735f6b 	ldmdbvs	r3!, {r0, r1, r3, r5, r6, r8, r9, sl, fp, ip, lr}^
 280:	6900657a 	stmdbvs	r0, {r1, r3, r4, r5, r6, r8, sl, sp, lr}
 284:	5f74696e 	svcpl	0x0074696e
 288:	00626370 	rsbeq	r6, r2, r0, ror r3
 28c:	70736964 	rsbsvc	r6, r3, r4, ror #18
 290:	68637461 	stmdavs	r3!, {r0, r5, r6, sl, ip, sp, lr}^
 294:	632e7265 	teqvs	lr, #1342177286	; 0x50000006
 298:	68637300 	stmdavs	r3!, {r8, r9, ip, sp, lr}^
 29c:	632e6465 	teqvs	lr, #1694498816	; 0x65000000
 2a0:	6c696b00 	stclvs	11, cr6, [r9], #-0
 2a4:	00656d6c 	rsbeq	r6, r5, ip, ror #26
 2a8:	6c656979 	stclvs	9, cr6, [r5], #-484	; 0xfffffe1c
 2ac:	506e0064 	rsbpl	r0, lr, r4, rrx
 2b0:	65636f72 	strbvs	r6, [r3, #-3954]!	; 0xf72
 2b4:	61007373 	tstvs	r0, r3, ror r3
 2b8:	00736772 	rsbseq	r6, r3, r2, ror r7
 2bc:	61657263 	cmnvs	r5, r3, ror #4
 2c0:	705f6574 	subsvc	r6, pc, r4, ror r5	; <UNPREDICTABLE>
 2c4:	65636f72 	strbvs	r6, [r3, #-3954]!	; 0xf72
 2c8:	74007373 	strvc	r7, [r0], #-883	; 0x373
 2cc:	50706d65 	rsbspl	r6, r0, r5, ror #26
 2d0:	65636f72 	strbvs	r6, [r3, #-3954]!	; 0xf72
 2d4:	Address 0x00000000000002d4 is out of bounds.


Disassembly of section .debug_frame:

00000000 <.debug_frame>:
   0:	0000000c 	andeq	r0, r0, ip
   4:	ffffffff 			; <UNDEFINED> instruction: 0xffffffff
   8:	7c020001 	stcvc	0, cr0, [r2], {1}
   c:	000d0c0e 	andeq	r0, sp, lr, lsl #24
  10:	00000014 	andeq	r0, r0, r4, lsl r0
  14:	00000000 	andeq	r0, r0, r0
  18:	00008078 	andeq	r8, r0, r8, ror r0
  1c:	0000003c 	andeq	r0, r0, ip, lsr r0
  20:	8e040e42 	cdphi	14, 0, cr0, cr4, cr2, {2}
  24:	100e4201 	andne	r4, lr, r1, lsl #4
  28:	00000014 	andeq	r0, r0, r4, lsl r0
  2c:	00000000 	andeq	r0, r0, r0
  30:	000080b4 	strheq	r8, [r0], -r4
  34:	0000003c 	andeq	r0, r0, ip, lsr r0
  38:	8e040e42 	cdphi	14, 0, cr0, cr4, cr2, {2}
  3c:	100e4201 	andne	r4, lr, r1, lsl #4
  40:	00000014 	andeq	r0, r0, r4, lsl r0
  44:	00000000 	andeq	r0, r0, r0
  48:	000080f0 	strdeq	r8, [r0], -r0
  4c:	00000034 	andeq	r0, r0, r4, lsr r0
  50:	83080e42 	movwhi	r0, #36418	; 0x8e42
  54:	00018e02 	andeq	r8, r1, r2, lsl #28
  58:	0000000c 	andeq	r0, r0, ip
  5c:	ffffffff 			; <UNDEFINED> instruction: 0xffffffff
  60:	7c020001 	stcvc	0, cr0, [r2], {1}
  64:	000d0c0e 	andeq	r0, sp, lr, lsl #24
  68:	00000014 	andeq	r0, r0, r4, lsl r0
  6c:	00000058 	andeq	r0, r0, r8, asr r0
  70:	00008124 	andeq	r8, r0, r4, lsr #2
  74:	00000018 	andeq	r0, r0, r8, lsl r0
  78:	83080e42 	movwhi	r0, #36418	; 0x8e42
  7c:	00018e02 	andeq	r8, r1, r2, lsl #28
  80:	00000014 	andeq	r0, r0, r4, lsl r0
  84:	00000058 	andeq	r0, r0, r8, asr r0
  88:	0000813c 	andeq	r8, r0, ip, lsr r1
  8c:	00000018 	andeq	r0, r0, r8, lsl r0
  90:	83080e42 	movwhi	r0, #36418	; 0x8e42
  94:	00018e02 	andeq	r8, r1, r2, lsl #28
  98:	00000014 	andeq	r0, r0, r4, lsl r0
  9c:	00000058 	andeq	r0, r0, r8, asr r0
  a0:	00008154 	andeq	r8, r0, r4, asr r1
  a4:	00000040 	andeq	r0, r0, r0, asr #32
  a8:	8e040e42 	cdphi	14, 0, cr0, cr4, cr2, {2}
  ac:	100e4201 	andne	r4, lr, r1, lsl #4
  b0:	00000014 	andeq	r0, r0, r4, lsl r0
  b4:	00000058 	andeq	r0, r0, r8, asr r0
  b8:	00008194 	muleq	r0, r4, r1
  bc:	00000018 	andeq	r0, r0, r8, lsl r0
  c0:	83080e42 	movwhi	r0, #36418	; 0x8e42
  c4:	00018e02 	andeq	r8, r1, r2, lsl #28
  c8:	00000014 	andeq	r0, r0, r4, lsl r0
  cc:	00000058 	andeq	r0, r0, r8, asr r0
  d0:	000081ac 	andeq	r8, r0, ip, lsr #3
  d4:	00000018 	andeq	r0, r0, r8, lsl r0
  d8:	83080e42 	movwhi	r0, #36418	; 0x8e42
  dc:	00018e02 	andeq	r8, r1, r2, lsl #28
  e0:	00000014 	andeq	r0, r0, r4, lsl r0
  e4:	00000058 	andeq	r0, r0, r8, asr r0
  e8:	000081c4 	andeq	r8, r0, r4, asr #3
  ec:	00000094 	muleq	r0, r4, r0
  f0:	8e040e42 	cdphi	14, 0, cr0, cr4, cr2, {2}
  f4:	100e4201 	andne	r4, lr, r1, lsl #4
  f8:	0000000c 	andeq	r0, r0, ip
  fc:	ffffffff 			; <UNDEFINED> instruction: 0xffffffff
 100:	7c020001 	stcvc	0, cr0, [r2], {1}
 104:	000d0c0e 	andeq	r0, sp, lr, lsl #24
 108:	00000014 	andeq	r0, r0, r4, lsl r0
 10c:	000000f8 	strdeq	r0, [r0], -r8
 110:	00008258 	andeq	r8, r0, r8, asr r2
 114:	00000148 	andeq	r0, r0, r8, asr #2
 118:	8e040e42 	cdphi	14, 0, cr0, cr4, cr2, {2}
 11c:	200e4201 	andcs	r4, lr, r1, lsl #4
 120:	00000014 	andeq	r0, r0, r4, lsl r0
 124:	000000f8 	strdeq	r0, [r0], -r8
 128:	000083a0 	andeq	r8, r0, r0, lsr #7
 12c:	00000058 	andeq	r0, r0, r8, asr r0
 130:	8e040e42 	cdphi	14, 0, cr0, cr4, cr2, {2}
 134:	100e4201 	andne	r4, lr, r1, lsl #4
 138:	00000010 	andeq	r0, r0, r0, lsl r0
 13c:	000000f8 	strdeq	r0, [r0], -r8
 140:	000083f8 	strdeq	r8, [r0], -r8	; <UNPREDICTABLE>
 144:	00000080 	andeq	r0, r0, r0, lsl #1
 148:	00080e42 	andeq	r0, r8, r2, asr #28
 14c:	00000010 	andeq	r0, r0, r0, lsl r0
 150:	000000f8 	strdeq	r0, [r0], -r8
 154:	00008478 	andeq	r8, r0, r8, ror r4
 158:	000000a4 	andeq	r0, r0, r4, lsr #1
 15c:	00080e42 	andeq	r0, r8, r2, asr #28
 160:	00000010 	andeq	r0, r0, r0, lsl r0
 164:	000000f8 	strdeq	r0, [r0], -r8
 168:	0000851c 	andeq	r8, r0, ip, lsl r5
 16c:	0000003c 	andeq	r0, r0, ip, lsr r0
 170:	00080e42 	andeq	r0, r8, r2, asr #28
 174:	0000000c 	andeq	r0, r0, ip
 178:	ffffffff 			; <UNDEFINED> instruction: 0xffffffff
 17c:	7c020001 	stcvc	0, cr0, [r2], {1}
 180:	000d0c0e 	andeq	r0, sp, lr, lsl #24
 184:	00000014 	andeq	r0, r0, r4, lsl r0
 188:	00000174 	andeq	r0, r0, r4, ror r1
 18c:	00008558 	andeq	r8, r0, r8, asr r5
 190:	00000068 	andeq	r0, r0, r8, rrx
 194:	8e040e42 	cdphi	14, 0, cr0, cr4, cr2, {2}
 198:	180e4201 	stmdane	lr, {r0, r9, lr}
 19c:	0000000c 	andeq	r0, r0, ip
 1a0:	ffffffff 			; <UNDEFINED> instruction: 0xffffffff
 1a4:	7c020001 	stcvc	0, cr0, [r2], {1}
 1a8:	000d0c0e 	andeq	r0, sp, lr, lsl #24
 1ac:	00000014 	andeq	r0, r0, r4, lsl r0
 1b0:	0000019c 	muleq	r0, ip, r1
 1b4:	000085c0 	andeq	r8, r0, r0, asr #11
 1b8:	000000a4 	andeq	r0, r0, r4, lsr #1
 1bc:	8e040e42 	cdphi	14, 0, cr0, cr4, cr2, {2}
 1c0:	180e4201 	stmdane	lr, {r0, r9, lr}
 1c4:	0000000c 	andeq	r0, r0, ip
 1c8:	0000019c 	muleq	r0, ip, r1
 1cc:	00008664 	andeq	r8, r0, r4, ror #12
 1d0:	00000170 	andeq	r0, r0, r0, ror r1
 1d4:	00000014 	andeq	r0, r0, r4, lsl r0
 1d8:	0000019c 	muleq	r0, ip, r1
 1dc:	000087d4 	ldrdeq	r8, [r0], -r4
 1e0:	00000020 	andeq	r0, r0, r0, lsr #32
 1e4:	83080e42 	movwhi	r0, #36418	; 0x8e42
 1e8:	00018e02 	andeq	r8, r1, r2, lsl #28
 1ec:	00000014 	andeq	r0, r0, r4, lsl r0
 1f0:	0000019c 	muleq	r0, ip, r1
 1f4:	000087f4 	strdeq	r8, [r0], -r4
 1f8:	00000054 	andeq	r0, r0, r4, asr r0
 1fc:	8e040e42 	cdphi	14, 0, cr0, cr4, cr2, {2}
 200:	200e4201 	andcs	r4, lr, r1, lsl #4

Disassembly of section .debug_ranges:

00000000 <.debug_ranges>:
   0:	0000006c 	andeq	r0, r0, ip, rrx
   4:	000000e4 	andeq	r0, r0, r4, ror #1
   8:	00000110 	andeq	r0, r0, r0, lsl r1
   c:	00000114 	andeq	r0, r0, r4, lsl r1
	...
