
kernel.elf:     file format elf32-littlearm


Disassembly of section .text:

00008000 <reset_handler-0x4>:
    8000:	e51ff004 	ldr	pc, [pc, #-4]	; 8004 <reset_handler>

00008004 <reset_handler>:
    8004:	00008008 	andeq	r8, r0, r8

00008008 <reset>:
    8008:	e3a00902 	mov	r0, #32768	; 0x8000
    800c:	e3a01000 	mov	r1, #0
    8010:	e8b003fc 	ldm	r0!, {r2, r3, r4, r5, r6, r7, r8, r9}
    8014:	e8a103fc 	stmia	r1!, {r2, r3, r4, r5, r6, r7, r8, r9}
    8018:	e8b003fc 	ldm	r0!, {r2, r3, r4, r5, r6, r7, r8, r9}
    801c:	e8a103fc 	stmia	r1!, {r2, r3, r4, r5, r6, r7, r8, r9}
    8020:	e3a000d2 	mov	r0, #210	; 0xd2
    8024:	e121f000 	msr	CPSR_c, r0
    8028:	e3a0d902 	mov	sp, #32768	; 0x8000
    802c:	e3a000d1 	mov	r0, #209	; 0xd1
    8030:	e121f000 	msr	CPSR_c, r0
    8034:	e3a0d901 	mov	sp, #16384	; 0x4000
    8038:	e3a000d3 	mov	r0, #211	; 0xd3
    803c:	e121f000 	msr	CPSR_c, r0
    8040:	e3a0d302 	mov	sp, #134217728	; 0x8000000
    8044:	eb00001b 	bl	80b8 <notmain>

00008048 <PUT32>:
    8048:	e5801000 	str	r1, [r0]
    804c:	e12fff1e 	bx	lr

00008050 <PUT16>:
    8050:	e1c010b0 	strh	r1, [r0]
    8054:	e12fff1e 	bx	lr

00008058 <PUT8>:
    8058:	e5c01000 	strb	r1, [r0]
    805c:	e12fff1e 	bx	lr

00008060 <GET32>:
    8060:	e5900000 	ldr	r0, [r0]
    8064:	e12fff1e 	bx	lr

00008068 <GETPC>:
    8068:	e1a0000e 	mov	r0, lr
    806c:	e12fff1e 	bx	lr

00008070 <BRANCHTO>:
    8070:	e12fff10 	bx	r0

00008074 <dummy>:
    8074:	e12fff1e 	bx	lr

00008078 <ping>:
    8078:	e92d4008 	push	{r3, lr}
    807c:	e59f000c 	ldr	r0, [pc, #12]	; 8090 <ping+0x18>
    8080:	eb000142 	bl	8590 <switch_to>
    8084:	e59f0004 	ldr	r0, [pc, #4]	; 8090 <ping+0x18>
    8088:	eb000140 	bl	8590 <switch_to>
    808c:	eafffffa 	b	807c <ping+0x4>
    8090:	00009018 	andeq	r9, r0, r8, lsl r0

00008094 <pong>:
    8094:	e92d4008 	push	{r3, lr}
    8098:	e59f0014 	ldr	r0, [pc, #20]	; 80b4 <pong+0x20>
    809c:	eb00013b 	bl	8590 <switch_to>
    80a0:	e59f000c 	ldr	r0, [pc, #12]	; 80b4 <pong+0x20>
    80a4:	eb000139 	bl	8590 <switch_to>
    80a8:	e59f0004 	ldr	r0, [pc, #4]	; 80b4 <pong+0x20>
    80ac:	eb000137 	bl	8590 <switch_to>
    80b0:	eafffff8 	b	8098 <pong+0x4>
    80b4:	00009004 	andeq	r9, r0, r4

000080b8 <notmain>:
    80b8:	e92d4008 	push	{r3, lr}
    80bc:	e59f0034 	ldr	r0, [pc, #52]	; 80f8 <notmain+0x40>
    80c0:	e59f1034 	ldr	r1, [pc, #52]	; 80fc <notmain+0x44>
    80c4:	e3a02080 	mov	r2, #128	; 0x80
    80c8:	eb00011d 	bl	8544 <init_ctx>
    80cc:	e59f002c 	ldr	r0, [pc, #44]	; 8100 <notmain+0x48>
    80d0:	e59f102c 	ldr	r1, [pc, #44]	; 8104 <notmain+0x4c>
    80d4:	e3a02080 	mov	r2, #128	; 0x80
    80d8:	eb000119 	bl	8544 <init_ctx>
    80dc:	e59f3024 	ldr	r3, [pc, #36]	; 8108 <notmain+0x50>
    80e0:	e59f2024 	ldr	r2, [pc, #36]	; 810c <notmain+0x54>
    80e4:	e5832000 	str	r2, [r3]
    80e8:	e59f0008 	ldr	r0, [pc, #8]	; 80f8 <notmain+0x40>
    80ec:	eb000127 	bl	8590 <switch_to>
    80f0:	e1a00003 	mov	r0, r3
    80f4:	e8bd8008 	pop	{r3, pc}
    80f8:	00009004 	andeq	r9, r0, r4
    80fc:	00008078 	andeq	r8, r0, r8, ror r0
    8100:	00009018 	andeq	r9, r0, r8, lsl r0
    8104:	00008094 	muleq	r0, r4, r0
    8108:	00009014 	andeq	r9, r0, r4, lsl r0
    810c:	0000900c 	andeq	r9, r0, ip

00008110 <enable_timer_irq>:
    8110:	e92d4008 	push	{r3, lr}
    8114:	e59f0008 	ldr	r0, [pc, #8]	; 8124 <enable_timer_irq+0x14>
    8118:	e3a01002 	mov	r1, #2
    811c:	ebffffc9 	bl	8048 <PUT32>
    8120:	e8bd8008 	pop	{r3, pc}
    8124:	20003000 	andcs	r3, r0, r0

00008128 <disable_timer_irq>:
    8128:	e92d4008 	push	{r3, lr}
    812c:	e59f0008 	ldr	r0, [pc, #8]	; 813c <disable_timer_irq+0x14>
    8130:	e3e01002 	mvn	r1, #2
    8134:	ebffffc3 	bl	8048 <PUT32>
    8138:	e8bd8008 	pop	{r3, pc}
    813c:	20003000 	andcs	r3, r0, r0

00008140 <set_next_tick_and_enable_timer_irq>:
    8140:	e52de004 	push	{lr}		; (str lr, [sp, #-4]!)
    8144:	e24dd00c 	sub	sp, sp, #12
    8148:	e59f0028 	ldr	r0, [pc, #40]	; 8178 <set_next_tick_and_enable_timer_irq+0x38>
    814c:	ebffffc3 	bl	8060 <GET32>
    8150:	e58d0004 	str	r0, [sp, #4]
    8154:	e59d3004 	ldr	r3, [sp, #4]
    8158:	e2833702 	add	r3, r3, #524288	; 0x80000
    815c:	e58d3004 	str	r3, [sp, #4]
    8160:	e59f0014 	ldr	r0, [pc, #20]	; 817c <set_next_tick_and_enable_timer_irq+0x3c>
    8164:	e59d1004 	ldr	r1, [sp, #4]
    8168:	ebffffb6 	bl	8048 <PUT32>
    816c:	ebffffe7 	bl	8110 <enable_timer_irq>
    8170:	e28dd00c 	add	sp, sp, #12
    8174:	e8bd8000 	pop	{pc}
    8178:	20003004 	andcs	r3, r0, r4
    817c:	20003010 	andcs	r3, r0, r0, lsl r0

00008180 <led_off>:
    8180:	e92d4008 	push	{r3, lr}
    8184:	e59f0008 	ldr	r0, [pc, #8]	; 8194 <led_off+0x14>
    8188:	e3a01801 	mov	r1, #65536	; 0x10000
    818c:	ebffffad 	bl	8048 <PUT32>
    8190:	e8bd8008 	pop	{r3, pc}
    8194:	2020001c 	eorcs	r0, r0, ip, lsl r0

00008198 <led_on>:
    8198:	e92d4008 	push	{r3, lr}
    819c:	e59f0008 	ldr	r0, [pc, #8]	; 81ac <led_on+0x14>
    81a0:	e3a01801 	mov	r1, #65536	; 0x10000
    81a4:	ebffffa7 	bl	8048 <PUT32>
    81a8:	e8bd8008 	pop	{r3, pc}
    81ac:	20200028 	eorcs	r0, r0, r8, lsr #32

000081b0 <init_hw>:
    81b0:	e52de004 	push	{lr}		; (str lr, [sp, #-4]!)
    81b4:	e24dd00c 	sub	sp, sp, #12
    81b8:	e59f0070 	ldr	r0, [pc, #112]	; 8230 <init_hw+0x80>
    81bc:	ebffffa7 	bl	8060 <GET32>
    81c0:	e58d0004 	str	r0, [sp, #4]
    81c4:	e59d3004 	ldr	r3, [sp, #4]
    81c8:	e3c33707 	bic	r3, r3, #1835008	; 0x1c0000
    81cc:	e58d3004 	str	r3, [sp, #4]
    81d0:	e59d3004 	ldr	r3, [sp, #4]
    81d4:	e3833701 	orr	r3, r3, #262144	; 0x40000
    81d8:	e58d3004 	str	r3, [sp, #4]
    81dc:	e59f004c 	ldr	r0, [pc, #76]	; 8230 <init_hw+0x80>
    81e0:	e59d1004 	ldr	r1, [sp, #4]
    81e4:	ebffff97 	bl	8048 <PUT32>
    81e8:	e59f0044 	ldr	r0, [pc, #68]	; 8234 <init_hw+0x84>
    81ec:	e3a01801 	mov	r1, #65536	; 0x10000
    81f0:	ebffff94 	bl	8048 <PUT32>
    81f4:	e59f003c 	ldr	r0, [pc, #60]	; 8238 <init_hw+0x88>
    81f8:	ebffff98 	bl	8060 <GET32>
    81fc:	e58d0000 	str	r0, [sp]
    8200:	e59d3000 	ldr	r3, [sp]
    8204:	e2833702 	add	r3, r3, #524288	; 0x80000
    8208:	e58d3000 	str	r3, [sp]
    820c:	e59f0028 	ldr	r0, [pc, #40]	; 823c <init_hw+0x8c>
    8210:	e59d1000 	ldr	r1, [sp]
    8214:	ebffff8b 	bl	8048 <PUT32>
    8218:	ebffffbc 	bl	8110 <enable_timer_irq>
    821c:	e59f001c 	ldr	r0, [pc, #28]	; 8240 <init_hw+0x90>
    8220:	e3a01002 	mov	r1, #2
    8224:	ebffff87 	bl	8048 <PUT32>
    8228:	e28dd00c 	add	sp, sp, #12
    822c:	e8bd8000 	pop	{pc}
    8230:	20200004 	eorcs	r0, r0, r4
    8234:	2020001c 	eorcs	r0, r0, ip, lsl r0
    8238:	20003004 	andcs	r3, r0, r4
    823c:	20003010 	andcs	r3, r0, r0, lsl r0
    8240:	2000b210 	andcs	fp, r0, r0, lsl r2

00008244 <AllocateMemory>:
    8244:	e52de004 	push	{lr}		; (str lr, [sp, #-4]!)
    8248:	e24dd01c 	sub	sp, sp, #28
    824c:	e58d0004 	str	r0, [sp, #4]
    8250:	e59f312c 	ldr	r3, [pc, #300]	; 8384 <AllocateMemory+0x140>
    8254:	e58d3014 	str	r3, [sp, #20]
    8258:	e59d3004 	ldr	r3, [sp, #4]
    825c:	e3530000 	cmp	r3, #0
    8260:	1a000001 	bne	826c <AllocateMemory+0x28>
    8264:	e3a03102 	mov	r3, #-2147483648	; 0x80000000
    8268:	ea000042 	b	8378 <AllocateMemory+0x134>
    826c:	e59f3114 	ldr	r3, [pc, #276]	; 8388 <AllocateMemory+0x144>
    8270:	e5933000 	ldr	r3, [r3]
    8274:	e3530000 	cmp	r3, #0
    8278:	1a000004 	bne	8290 <AllocateMemory+0x4c>
    827c:	e59d0014 	ldr	r0, [sp, #20]
    8280:	eb0000a0 	bl	8508 <createInitialHeader>
    8284:	e59f30fc 	ldr	r3, [pc, #252]	; 8388 <AllocateMemory+0x144>
    8288:	e3a02001 	mov	r2, #1
    828c:	e5832000 	str	r2, [r3]
    8290:	e3a03000 	mov	r3, #0
    8294:	e58d3010 	str	r3, [sp, #16]
    8298:	ea000025 	b	8334 <AllocateMemory+0xf0>
    829c:	e59d3014 	ldr	r3, [sp, #20]
    82a0:	e2833004 	add	r3, r3, #4
    82a4:	e5933000 	ldr	r3, [r3]
    82a8:	e3530000 	cmp	r3, #0
    82ac:	1a00001d 	bne	8328 <AllocateMemory+0xe4>
    82b0:	e59d3014 	ldr	r3, [sp, #20]
    82b4:	e5932000 	ldr	r2, [r3]
    82b8:	e59d3014 	ldr	r3, [sp, #20]
    82bc:	e0633002 	rsb	r3, r3, r2
    82c0:	e2433002 	sub	r3, r3, #2
    82c4:	e58d300c 	str	r3, [sp, #12]
    82c8:	e59d2004 	ldr	r2, [sp, #4]
    82cc:	e59d300c 	ldr	r3, [sp, #12]
    82d0:	e1520003 	cmp	r2, r3
    82d4:	8a000013 	bhi	8328 <AllocateMemory+0xe4>
    82d8:	e3a03001 	mov	r3, #1
    82dc:	e58d3010 	str	r3, [sp, #16]
    82e0:	e59d2004 	ldr	r2, [sp, #4]
    82e4:	e59d300c 	ldr	r3, [sp, #12]
    82e8:	e0633002 	rsb	r3, r3, r2
    82ec:	e3530003 	cmp	r3, #3
    82f0:	9a000017 	bls	8354 <AllocateMemory+0x110>
    82f4:	e59d3014 	ldr	r3, [sp, #20]
    82f8:	e5933000 	ldr	r3, [r3]
    82fc:	e2433004 	sub	r3, r3, #4
    8300:	e59d2004 	ldr	r2, [sp, #4]
    8304:	e2822002 	add	r2, r2, #2
    8308:	e1a02102 	lsl	r2, r2, #2
    830c:	e59d1014 	ldr	r1, [sp, #20]
    8310:	e0812002 	add	r2, r1, r2
    8314:	e5832000 	str	r2, [r3]
    8318:	e59d0014 	ldr	r0, [sp, #20]
    831c:	e59d1004 	ldr	r1, [sp, #4]
    8320:	eb00004f 	bl	8464 <createHeader>
    8324:	ea00000a 	b	8354 <AllocateMemory+0x110>
    8328:	e59d3014 	ldr	r3, [sp, #20]
    832c:	e5933000 	ldr	r3, [r3]
    8330:	e58d3014 	str	r3, [sp, #20]
    8334:	e59d3014 	ldr	r3, [sp, #20]
    8338:	e5933000 	ldr	r3, [r3]
    833c:	e3530000 	cmp	r3, #0
    8340:	0a000004 	beq	8358 <AllocateMemory+0x114>
    8344:	e59d3010 	ldr	r3, [sp, #16]
    8348:	e3530000 	cmp	r3, #0
    834c:	0affffd2 	beq	829c <AllocateMemory+0x58>
    8350:	ea000000 	b	8358 <AllocateMemory+0x114>
    8354:	e1a00000 	nop			; (mov r0, r0)
    8358:	e59d3010 	ldr	r3, [sp, #16]
    835c:	e3530000 	cmp	r3, #0
    8360:	1a000002 	bne	8370 <AllocateMemory+0x12c>
    8364:	e59d0014 	ldr	r0, [sp, #20]
    8368:	e59d1004 	ldr	r1, [sp, #4]
    836c:	eb00003c 	bl	8464 <createHeader>
    8370:	e59d3014 	ldr	r3, [sp, #20]
    8374:	e2833008 	add	r3, r3, #8
    8378:	e1a00003 	mov	r0, r3
    837c:	e28dd01c 	add	sp, sp, #28
    8380:	e8bd8000 	pop	{pc}
    8384:	00009024 	andeq	r9, r0, r4, lsr #32
    8388:	00009020 	andeq	r9, r0, r0, lsr #32

0000838c <FreeAllocatedMemory>:
    838c:	e52de004 	push	{lr}		; (str lr, [sp, #-4]!)
    8390:	e24dd00c 	sub	sp, sp, #12
    8394:	e58d0004 	str	r0, [sp, #4]
    8398:	e59d3004 	ldr	r3, [sp, #4]
    839c:	e2433004 	sub	r3, r3, #4
    83a0:	e5932000 	ldr	r2, [r3]
    83a4:	e59f3034 	ldr	r3, [pc, #52]	; 83e0 <FreeAllocatedMemory+0x54>
    83a8:	e1520003 	cmp	r2, r3
    83ac:	1a000007 	bne	83d0 <FreeAllocatedMemory+0x44>
    83b0:	e59d0004 	ldr	r0, [sp, #4]
    83b4:	eb00000a 	bl	83e4 <concatenateFreeBlocks>
    83b8:	e59d3004 	ldr	r3, [sp, #4]
    83bc:	e2433004 	sub	r3, r3, #4
    83c0:	e3a02000 	mov	r2, #0
    83c4:	e5832000 	str	r2, [r3]
    83c8:	e3a03001 	mov	r3, #1
    83cc:	ea000000 	b	83d4 <FreeAllocatedMemory+0x48>
    83d0:	e3a03000 	mov	r3, #0
    83d4:	e1a00003 	mov	r0, r3
    83d8:	e28dd00c 	add	sp, sp, #12
    83dc:	e8bd8000 	pop	{pc}
    83e0:	44414d66 	strbmi	r4, [r1], #-3430	; 0xd66

000083e4 <concatenateFreeBlocks>:
    83e4:	e24dd008 	sub	sp, sp, #8
    83e8:	e58d0004 	str	r0, [sp, #4]
    83ec:	ea000015 	b	8448 <concatenateFreeBlocks+0x64>
    83f0:	e59d3004 	ldr	r3, [sp, #4]
    83f4:	e5933000 	ldr	r3, [r3]
    83f8:	e5933000 	ldr	r3, [r3]
    83fc:	e3530000 	cmp	r3, #0
    8400:	1a000003 	bne	8414 <concatenateFreeBlocks+0x30>
    8404:	e59d3004 	ldr	r3, [sp, #4]
    8408:	e3a02000 	mov	r2, #0
    840c:	e5832000 	str	r2, [r3]
    8410:	ea000011 	b	845c <concatenateFreeBlocks+0x78>
    8414:	e59d3004 	ldr	r3, [sp, #4]
    8418:	e5933000 	ldr	r3, [r3]
    841c:	e5932000 	ldr	r2, [r3]
    8420:	e59d3004 	ldr	r3, [sp, #4]
    8424:	e5832000 	str	r2, [r3]
    8428:	e59d3004 	ldr	r3, [sp, #4]
    842c:	e5933000 	ldr	r3, [r3]
    8430:	e5933000 	ldr	r3, [r3]
    8434:	e59d2004 	ldr	r2, [sp, #4]
    8438:	e5922000 	ldr	r2, [r2]
    843c:	e2422004 	sub	r2, r2, #4
    8440:	e5922000 	ldr	r2, [r2]
    8444:	e5832000 	str	r2, [r3]
    8448:	e59d3004 	ldr	r3, [sp, #4]
    844c:	e5933000 	ldr	r3, [r3]
    8450:	e5933000 	ldr	r3, [r3]
    8454:	e3730001 	cmn	r3, #1
    8458:	0affffe4 	beq	83f0 <concatenateFreeBlocks+0xc>
    845c:	e28dd008 	add	sp, sp, #8
    8460:	e12fff1e 	bx	lr

00008464 <createHeader>:
    8464:	e24dd008 	sub	sp, sp, #8
    8468:	e58d0004 	str	r0, [sp, #4]
    846c:	e58d1000 	str	r1, [sp]
    8470:	e59d3000 	ldr	r3, [sp]
    8474:	e2833002 	add	r3, r3, #2
    8478:	e1a03103 	lsl	r3, r3, #2
    847c:	e59d2004 	ldr	r2, [sp, #4]
    8480:	e0823003 	add	r3, r2, r3
    8484:	e59d2004 	ldr	r2, [sp, #4]
    8488:	e2422004 	sub	r2, r2, #4
    848c:	e5832000 	str	r2, [r3]
    8490:	e59d3000 	ldr	r3, [sp]
    8494:	e2833003 	add	r3, r3, #3
    8498:	e1a03103 	lsl	r3, r3, #2
    849c:	e59d2004 	ldr	r2, [sp, #4]
    84a0:	e0823003 	add	r3, r2, r3
    84a4:	e59d2004 	ldr	r2, [sp, #4]
    84a8:	e5922000 	ldr	r2, [r2]
    84ac:	e5832000 	str	r2, [r3]
    84b0:	e59d3000 	ldr	r3, [sp]
    84b4:	e2833004 	add	r3, r3, #4
    84b8:	e1a03103 	lsl	r3, r3, #2
    84bc:	e59d2004 	ldr	r2, [sp, #4]
    84c0:	e0823003 	add	r3, r2, r3
    84c4:	e3a02000 	mov	r2, #0
    84c8:	e5832000 	str	r2, [r3]
    84cc:	e59d3000 	ldr	r3, [sp]
    84d0:	e2833003 	add	r3, r3, #3
    84d4:	e1a03103 	lsl	r3, r3, #2
    84d8:	e59d2004 	ldr	r2, [sp, #4]
    84dc:	e0823003 	add	r3, r2, r3
    84e0:	e1a02003 	mov	r2, r3
    84e4:	e59d3004 	ldr	r3, [sp, #4]
    84e8:	e5832000 	str	r2, [r3]
    84ec:	e59d3004 	ldr	r3, [sp, #4]
    84f0:	e2833004 	add	r3, r3, #4
    84f4:	e59f2008 	ldr	r2, [pc, #8]	; 8504 <createHeader+0xa0>
    84f8:	e5832000 	str	r2, [r3]
    84fc:	e28dd008 	add	sp, sp, #8
    8500:	e12fff1e 	bx	lr
    8504:	44414d66 	strbmi	r4, [r1], #-3430	; 0xd66

00008508 <createInitialHeader>:
    8508:	e24dd008 	sub	sp, sp, #8
    850c:	e58d0004 	str	r0, [sp, #4]
    8510:	e59d3004 	ldr	r3, [sp, #4]
    8514:	e2433004 	sub	r3, r3, #4
    8518:	e3a02000 	mov	r2, #0
    851c:	e5832000 	str	r2, [r3]
    8520:	e59d3004 	ldr	r3, [sp, #4]
    8524:	e3a02000 	mov	r2, #0
    8528:	e5832000 	str	r2, [r3]
    852c:	e59d3004 	ldr	r3, [sp, #4]
    8530:	e2833004 	add	r3, r3, #4
    8534:	e3a02000 	mov	r2, #0
    8538:	e5832000 	str	r2, [r3]
    853c:	e28dd008 	add	sp, sp, #8
    8540:	e12fff1e 	bx	lr

00008544 <init_ctx>:
    8544:	e52de004 	push	{lr}		; (str lr, [sp, #-4]!)
    8548:	e24dd014 	sub	sp, sp, #20
    854c:	e58d000c 	str	r0, [sp, #12]
    8550:	e58d1008 	str	r1, [sp, #8]
    8554:	e58d2004 	str	r2, [sp, #4]
    8558:	e59d300c 	ldr	r3, [sp, #12]
    855c:	e59d2008 	ldr	r2, [sp, #8]
    8560:	e5832004 	str	r2, [r3, #4]
    8564:	e59d0004 	ldr	r0, [sp, #4]
    8568:	ebffff35 	bl	8244 <AllocateMemory>
    856c:	e1a02000 	mov	r2, r0
    8570:	e59d3004 	ldr	r3, [sp, #4]
    8574:	e2433107 	sub	r3, r3, #-1073741823	; 0xc0000001
    8578:	e1a03203 	lsl	r3, r3, #4
    857c:	e0822003 	add	r2, r2, r3
    8580:	e59d300c 	ldr	r3, [sp, #12]
    8584:	e5832000 	str	r2, [r3]
    8588:	e28dd014 	add	sp, sp, #20
    858c:	e8bd8000 	pop	{pc}

00008590 <switch_to>:
    8590:	e24dd008 	sub	sp, sp, #8
    8594:	e58d0004 	str	r0, [sp, #4]
    8598:	e59f31ec 	ldr	r3, [pc, #492]	; 878c <switch_to+0x1fc>
    859c:	e5933000 	ldr	r3, [r3]
    85a0:	e1a0200e 	mov	r2, lr
    85a4:	e5832004 	str	r2, [r3, #4]
    85a8:	e59f31dc 	ldr	r3, [pc, #476]	; 878c <switch_to+0x1fc>
    85ac:	e5933000 	ldr	r3, [r3]
    85b0:	e1a0200d 	mov	r2, sp
    85b4:	e5832000 	str	r2, [r3]
    85b8:	e59f31cc 	ldr	r3, [pc, #460]	; 878c <switch_to+0x1fc>
    85bc:	e5933000 	ldr	r3, [r3]
    85c0:	e1a02000 	mov	r2, r0
    85c4:	e5832008 	str	r2, [r3, #8]
    85c8:	e59f31bc 	ldr	r3, [pc, #444]	; 878c <switch_to+0x1fc>
    85cc:	e5933000 	ldr	r3, [r3]
    85d0:	e1a02001 	mov	r2, r1
    85d4:	e583200c 	str	r2, [r3, #12]
    85d8:	e59f31ac 	ldr	r3, [pc, #428]	; 878c <switch_to+0x1fc>
    85dc:	e5933000 	ldr	r3, [r3]
    85e0:	e1a02002 	mov	r2, r2
    85e4:	e5832010 	str	r2, [r3, #16]
    85e8:	e59f319c 	ldr	r3, [pc, #412]	; 878c <switch_to+0x1fc>
    85ec:	e5933000 	ldr	r3, [r3]
    85f0:	e1a02003 	mov	r2, r3
    85f4:	e5832014 	str	r2, [r3, #20]
    85f8:	e59f318c 	ldr	r3, [pc, #396]	; 878c <switch_to+0x1fc>
    85fc:	e5933000 	ldr	r3, [r3]
    8600:	e1a02004 	mov	r2, r4
    8604:	e5832018 	str	r2, [r3, #24]
    8608:	e59f317c 	ldr	r3, [pc, #380]	; 878c <switch_to+0x1fc>
    860c:	e5933000 	ldr	r3, [r3]
    8610:	e1a02005 	mov	r2, r5
    8614:	e583201c 	str	r2, [r3, #28]
    8618:	e59f316c 	ldr	r3, [pc, #364]	; 878c <switch_to+0x1fc>
    861c:	e5933000 	ldr	r3, [r3]
    8620:	e1a02006 	mov	r2, r6
    8624:	e5832020 	str	r2, [r3, #32]
    8628:	e59f315c 	ldr	r3, [pc, #348]	; 878c <switch_to+0x1fc>
    862c:	e5933000 	ldr	r3, [r3]
    8630:	e1a02007 	mov	r2, r7
    8634:	e5832024 	str	r2, [r3, #36]	; 0x24
    8638:	e59f314c 	ldr	r3, [pc, #332]	; 878c <switch_to+0x1fc>
    863c:	e5933000 	ldr	r3, [r3]
    8640:	e1a02008 	mov	r2, r8
    8644:	e5832028 	str	r2, [r3, #40]	; 0x28
    8648:	e59f313c 	ldr	r3, [pc, #316]	; 878c <switch_to+0x1fc>
    864c:	e5933000 	ldr	r3, [r3]
    8650:	e1a02009 	mov	r2, r9
    8654:	e583202c 	str	r2, [r3, #44]	; 0x2c
    8658:	e59f312c 	ldr	r3, [pc, #300]	; 878c <switch_to+0x1fc>
    865c:	e5933000 	ldr	r3, [r3]
    8660:	e1a0200a 	mov	r2, sl
    8664:	e5832030 	str	r2, [r3, #48]	; 0x30
    8668:	e59f311c 	ldr	r3, [pc, #284]	; 878c <switch_to+0x1fc>
    866c:	e5933000 	ldr	r3, [r3]
    8670:	e1a0200b 	mov	r2, fp
    8674:	e5832034 	str	r2, [r3, #52]	; 0x34
    8678:	e59f310c 	ldr	r3, [pc, #268]	; 878c <switch_to+0x1fc>
    867c:	e5933000 	ldr	r3, [r3]
    8680:	e1a0200c 	mov	r2, ip
    8684:	e5832038 	str	r2, [r3, #56]	; 0x38
    8688:	e59f30fc 	ldr	r3, [pc, #252]	; 878c <switch_to+0x1fc>
    868c:	e59d2004 	ldr	r2, [sp, #4]
    8690:	e5832000 	str	r2, [r3]
    8694:	e59f30f0 	ldr	r3, [pc, #240]	; 878c <switch_to+0x1fc>
    8698:	e5933000 	ldr	r3, [r3]
    869c:	e5933004 	ldr	r3, [r3, #4]
    86a0:	e1a0e003 	mov	lr, r3
    86a4:	e59f30e0 	ldr	r3, [pc, #224]	; 878c <switch_to+0x1fc>
    86a8:	e5933000 	ldr	r3, [r3]
    86ac:	e5933000 	ldr	r3, [r3]
    86b0:	e1a0d003 	mov	sp, r3
    86b4:	e59f30d0 	ldr	r3, [pc, #208]	; 878c <switch_to+0x1fc>
    86b8:	e5933000 	ldr	r3, [r3]
    86bc:	e5933008 	ldr	r3, [r3, #8]
    86c0:	e1a00003 	mov	r0, r3
    86c4:	e59f30c0 	ldr	r3, [pc, #192]	; 878c <switch_to+0x1fc>
    86c8:	e5933000 	ldr	r3, [r3]
    86cc:	e593300c 	ldr	r3, [r3, #12]
    86d0:	e1a01003 	mov	r1, r3
    86d4:	e59f30b0 	ldr	r3, [pc, #176]	; 878c <switch_to+0x1fc>
    86d8:	e5933000 	ldr	r3, [r3]
    86dc:	e5933010 	ldr	r3, [r3, #16]
    86e0:	e1a02003 	mov	r2, r3
    86e4:	e59f30a0 	ldr	r3, [pc, #160]	; 878c <switch_to+0x1fc>
    86e8:	e5933000 	ldr	r3, [r3]
    86ec:	e5933014 	ldr	r3, [r3, #20]
    86f0:	e1a03003 	mov	r3, r3
    86f4:	e59f3090 	ldr	r3, [pc, #144]	; 878c <switch_to+0x1fc>
    86f8:	e5933000 	ldr	r3, [r3]
    86fc:	e5933018 	ldr	r3, [r3, #24]
    8700:	e1a04003 	mov	r4, r3
    8704:	e59f3080 	ldr	r3, [pc, #128]	; 878c <switch_to+0x1fc>
    8708:	e5933000 	ldr	r3, [r3]
    870c:	e593301c 	ldr	r3, [r3, #28]
    8710:	e1a05003 	mov	r5, r3
    8714:	e59f3070 	ldr	r3, [pc, #112]	; 878c <switch_to+0x1fc>
    8718:	e5933000 	ldr	r3, [r3]
    871c:	e5933020 	ldr	r3, [r3, #32]
    8720:	e1a06003 	mov	r6, r3
    8724:	e59f3060 	ldr	r3, [pc, #96]	; 878c <switch_to+0x1fc>
    8728:	e5933000 	ldr	r3, [r3]
    872c:	e5933024 	ldr	r3, [r3, #36]	; 0x24
    8730:	e1a07003 	mov	r7, r3
    8734:	e59f3050 	ldr	r3, [pc, #80]	; 878c <switch_to+0x1fc>
    8738:	e5933000 	ldr	r3, [r3]
    873c:	e5933028 	ldr	r3, [r3, #40]	; 0x28
    8740:	e1a08003 	mov	r8, r3
    8744:	e59f3040 	ldr	r3, [pc, #64]	; 878c <switch_to+0x1fc>
    8748:	e5933000 	ldr	r3, [r3]
    874c:	e593302c 	ldr	r3, [r3, #44]	; 0x2c
    8750:	e1a09003 	mov	r9, r3
    8754:	e59f3030 	ldr	r3, [pc, #48]	; 878c <switch_to+0x1fc>
    8758:	e5933000 	ldr	r3, [r3]
    875c:	e5933030 	ldr	r3, [r3, #48]	; 0x30
    8760:	e1a0a003 	mov	sl, r3
    8764:	e59f3020 	ldr	r3, [pc, #32]	; 878c <switch_to+0x1fc>
    8768:	e5933000 	ldr	r3, [r3]
    876c:	e5933034 	ldr	r3, [r3, #52]	; 0x34
    8770:	e1a0b003 	mov	fp, r3
    8774:	e59f3010 	ldr	r3, [pc, #16]	; 878c <switch_to+0x1fc>
    8778:	e5933000 	ldr	r3, [r3]
    877c:	e5933038 	ldr	r3, [r3, #56]	; 0x38
    8780:	e1a0c003 	mov	ip, r3
    8784:	e28dd008 	add	sp, sp, #8
    8788:	e12fff1e 	bx	lr
    878c:	00009000 	andeq	r9, r0, r0

Disassembly of section .bss:

00009000 <bss>:
    9000:	00000000 	andeq	r0, r0, r0

00009004 <ctx_A>:
	...

0000900c <ctx_init>:
	...

00009014 <current_ctx>:
    9014:	00000000 	andeq	r0, r0, r0

00009018 <ctx_B>:
	...

00009020 <isInitialised>:
    9020:	00000000 	andeq	r0, r0, r0

00009024 <heap>:
	...

Disassembly of section .ARM.attributes:

00000000 <.ARM.attributes>:
   0:	00003141 	andeq	r3, r0, r1, asr #2
   4:	61656100 	cmnvs	r5, r0, lsl #2
   8:	01006962 	tsteq	r0, r2, ror #18
   c:	00000027 	andeq	r0, r0, r7, lsr #32
  10:	005a3605 	subseq	r3, sl, r5, lsl #12
  14:	01080706 	tsteq	r8, r6, lsl #14
  18:	020a0109 	andeq	r0, sl, #1073741826	; 0x40000002
  1c:	01140412 	tsteq	r4, r2, lsl r4
  20:	03170115 	tsteq	r7, #1073741829	; 0x40000005
  24:	011a0118 	tsteq	sl, r8, lsl r1
  28:	011c031b 	tsteq	ip, fp, lsl r3
  2c:	012c0122 	teqeq	ip, r2, lsr #2
  30:	Address 0x0000000000000030 is out of bounds.


Disassembly of section .comment:

00000000 <.comment>:
   0:	3a434347 	bcc	10d0d24 <_bss_end+0x10c6d24>
   4:	4e472820 	cdpmi	8, 4, cr2, cr7, cr0, {1}
   8:	34202955 	strtcc	r2, [r0], #-2389	; 0x955
   c:	312e372e 	teqcc	lr, lr, lsr #14
	...

Disassembly of section .debug_line:

00000000 <.debug_line>:
   0:	0000004f 	andeq	r0, r0, pc, asr #32
   4:	00200002 	eoreq	r0, r0, r2
   8:	01020000 	mrseq	r0, (UNDEF: 2)
   c:	000d0efb 	strdeq	r0, [sp], -fp
  10:	01010101 	tsteq	r1, r1, lsl #2
  14:	01000000 	mrseq	r0, (UNDEF: 0)
  18:	00010000 	andeq	r0, r1, r0
  1c:	74636576 	strbtvc	r6, [r3], #-1398	; 0x576
  20:	2e73726f 	cdpcs	2, 7, cr7, cr3, cr15, {3}
  24:	00000073 	andeq	r0, r0, r3, ror r0
  28:	05000000 	streq	r0, [r0, #-0]
  2c:	00800002 	addeq	r0, r0, r2
  30:	2f4d1900 	svccs	0x004d1900
  34:	2f2f2f2f 	svccs	0x002f2f2f
  38:	312f2f31 	teqcc	pc, r1, lsr pc	; <UNPREDICTABLE>
  3c:	2f312f2f 	svccs	0x00312f2f
  40:	2f32342f 	svccs	0x0032342f
  44:	2f322f32 	svccs	0x00322f32
  48:	2f322f32 	svccs	0x00322f32
  4c:	02023232 	andeq	r3, r2, #536870915	; 0x20000003
  50:	ce010100 	adfgts	f0, f1, f0
  54:	02000000 	andeq	r0, r0, #0
  58:	00008f00 	andeq	r8, r0, r0, lsl #30
  5c:	fb010200 	blx	40866 <_bss_end+0x36866>
  60:	01000d0e 	tsteq	r0, lr, lsl #26
  64:	00010101 	andeq	r0, r1, r1, lsl #2
  68:	00010000 	andeq	r0, r1, r0
  6c:	6f2f0100 	svcvs	0x002f0100
  70:	342f7470 	strtcc	r7, [pc], #-1136	; 78 <_start-0x7f88>
  74:	4c2d6669 	stcmi	6, cr6, [sp], #-420	; 0xfffffe5c
  78:	72612f53 	rsbvc	r2, r1, #332	; 0x14c
  7c:	6f6e2d6d 	svcvs	0x006e2d6d
  80:	652d656e 	strvs	r6, [sp, #-1390]!	; 0x56e
  84:	2d696261 	sfmcs	f6, 2, [r9, #-388]!	; 0xfffffe7c
  88:	2f636367 	svccs	0x00636367
  8c:	2f62696c 	svccs	0x0062696c
  90:	2f636367 	svccs	0x00636367
  94:	2d6d7261 	sfmcs	f7, 2, [sp, #-388]!	; 0xfffffe7c
  98:	656e6f6e 	strbvs	r6, [lr, #-3950]!	; 0xf6e
  9c:	6261652d 	rsbvs	r6, r1, #188743680	; 0xb400000
  a0:	2e342f69 	cdpcs	15, 3, cr2, cr4, cr9, {3}
  a4:	2f312e37 	svccs	0x00312e37
  a8:	6c636e69 	stclvs	14, cr6, [r3], #-420	; 0xfffffe5c
  ac:	00656475 	rsbeq	r6, r5, r5, ror r4
  b0:	746f6e00 	strbtvc	r6, [pc], #-3584	; b8 <_start-0x7f48>
  b4:	6e69616d 	powvsez	f6, f1, #5.0
  b8:	0000632e 	andeq	r6, r0, lr, lsr #6
  bc:	72700000 	rsbsvc	r0, r0, #0
  c0:	7365636f 	cmnvc	r5, #-1140850687	; 0xbc000001
  c4:	00682e73 	rsbeq	r2, r8, r3, ror lr
  c8:	64000000 	strvs	r0, [r0], #-0
  cc:	61707369 	cmnvs	r0, r9, ror #6
  d0:	65686374 	strbvs	r6, [r8, #-884]!	; 0x374
  d4:	00682e72 	rsbeq	r2, r8, r2, ror lr
  d8:	73000000 	movwvc	r0, #0
  dc:	6e696474 	mcrvs	4, 3, r6, cr9, cr4, {3}
  e0:	63672d74 	cmnvs	r7, #7424	; 0x1d00
  e4:	00682e63 	rsbeq	r2, r8, r3, ror #28
  e8:	00000001 	andeq	r0, r0, r1
  ec:	78020500 	stmdavc	r2, {r8, sl}
  f0:	03000080 	movweq	r0, #128	; 0x80
  f4:	0200010b 	andeq	r0, r0, #-1073741822	; 0xc0000002
  f8:	00300104 	eorseq	r0, r0, r4, lsl #2
  fc:	4b010402 	blmi	4110c <_bss_end+0x3710c>
 100:	01040200 	mrseq	r0, R12_usr
 104:	02004f4b 	andeq	r4, r0, #300	; 0x12c
 108:	00300104 	eorseq	r0, r0, r4, lsl #2
 10c:	4b010402 	blmi	4111c <_bss_end+0x3711c>
 110:	01040200 	mrseq	r0, R12_usr
 114:	0402004b 	streq	r0, [r2], #-75	; 0x4b
 118:	2f504b01 	svccs	0x00504b01
 11c:	4b688483 	blmi	1a21330 <_bss_end+0x1a17330>
 120:	01001002 	tsteq	r0, r2
 124:	00004f01 	andeq	r4, r0, r1, lsl #30
 128:	1b000200 	blne	930 <_start-0x76d0>
 12c:	02000000 	andeq	r0, r0, #0
 130:	0d0efb01 	vstreq	d15, [lr, #-4]
 134:	01010100 	mrseq	r0, (UNDEF: 17)
 138:	00000001 	andeq	r0, r0, r1
 13c:	01000001 	tsteq	r0, r1
 140:	2e776800 	cdpcs	8, 7, cr6, cr7, cr0, {0}
 144:	00000063 	andeq	r0, r0, r3, rrx
 148:	05000000 	streq	r0, [r0, #-0]
 14c:	00811002 	addeq	r1, r1, r2
 150:	01170300 	tsteq	r7, r0, lsl #6
 154:	304e6730 	subcc	r6, lr, r0, lsr r7
 158:	674b4f67 	strbvs	r4, [fp, -r7, ror #30]
 15c:	032f6867 	teqeq	pc, #6750208	; 0x670000
 160:	672f8209 	strvs	r8, [pc, -r9, lsl #4]!
 164:	51672f4e 	cmnpl	r7, lr, asr #30
 168:	6767674f 	strbvs	r6, [r7, -pc, asr #14]!
 16c:	67676967 	strbvs	r6, [r7, -r7, ror #18]!
 170:	0267316a 	rsbeq	r3, r7, #-2147483622	; 0x8000001a
 174:	0101000e 	tsteq	r1, lr
 178:	000000ef 	andeq	r0, r0, pc, ror #1
 17c:	008d0002 	addeq	r0, sp, r2
 180:	01020000 	mrseq	r0, (UNDEF: 2)
 184:	000d0efb 	strdeq	r0, [sp], -fp
 188:	01010101 	tsteq	r1, r1, lsl #2
 18c:	01000000 	mrseq	r0, (UNDEF: 0)
 190:	2f010000 	svccs	0x00010000
 194:	2f74706f 	svccs	0x0074706f
 198:	2d666934 	stclcs	9, cr6, [r6, #-208]!	; 0xffffff30
 19c:	612f534c 	teqvs	pc, ip, asr #6
 1a0:	6e2d6d72 	mcrvs	13, 1, r6, cr13, cr2, {3}
 1a4:	2d656e6f 	stclcs	14, cr6, [r5, #-444]!	; 0xfffffe44
 1a8:	69626165 	stmdbvs	r2!, {r0, r2, r5, r6, r8, sp, lr}^
 1ac:	6363672d 	cmnvs	r3, #11796480	; 0xb40000
 1b0:	62696c2f 	rsbvs	r6, r9, #12032	; 0x2f00
 1b4:	6363672f 	cmnvs	r3, #12320768	; 0xbc0000
 1b8:	6d72612f 	ldfvse	f6, [r2, #-188]!	; 0xffffff44
 1bc:	6e6f6e2d 	cdpvs	14, 6, cr6, cr15, cr13, {1}
 1c0:	61652d65 	cmnvs	r5, r5, ror #26
 1c4:	342f6962 	strtcc	r6, [pc], #-2402	; 1cc <_start-0x7e34>
 1c8:	312e372e 	teqcc	lr, lr, lsr #14
 1cc:	636e692f 	cmnvs	lr, #770048	; 0xbc000
 1d0:	6564756c 	strbvs	r7, [r4, #-1388]!	; 0x56c
 1d4:	6c610000 	stclvs	0, cr0, [r1], #-0
 1d8:	61636f6c 	cmnvs	r3, ip, ror #30
 1dc:	654d6574 	strbvs	r6, [sp, #-1396]	; 0x574
 1e0:	79726f6d 	ldmdbvc	r2!, {r0, r2, r3, r5, r6, r8, r9, sl, fp, sp, lr}^
 1e4:	0000632e 	andeq	r6, r0, lr, lsr #6
 1e8:	74730000 	ldrbtvc	r0, [r3], #-0
 1ec:	746e6964 	strbtvc	r6, [lr], #-2404	; 0x964
 1f0:	6363672d 	cmnvs	r3, #11796480	; 0xb40000
 1f4:	0100682e 	tsteq	r0, lr, lsr #16
 1f8:	6c610000 	stclvs	0, cr0, [r1], #-0
 1fc:	61636f6c 	cmnvs	r3, ip, ror #30
 200:	654d6574 	strbvs	r6, [sp, #-1396]	; 0x574
 204:	79726f6d 	ldmdbvc	r2!, {r0, r2, r3, r5, r6, r8, r9, sl, fp, sp, lr}^
 208:	0000682e 	andeq	r6, r0, lr, lsr #16
 20c:	00000000 	andeq	r0, r0, r0
 210:	82440205 	subhi	r0, r4, #1342177280	; 0x50000000
 214:	26030000 	strcs	r0, [r3], -r0
 218:	674c6701 	strbvs	r6, [ip, -r1, lsl #14]
 21c:	694b834c 	stmdbvs	fp, {r2, r3, r6, r8, r9, pc}^
 220:	bb9f2f4b 	bllt	fe7cbf54 <_bss_end+0xfe7c1f54>
 224:	08a04b83 	stmiaeq	r0!, {r0, r1, r7, r8, r9, fp, lr}
 228:	00316821 	eorseq	r6, r1, r1, lsr #16
 22c:	03010402 	movweq	r0, #5122	; 0x1402
 230:	02006673 	andeq	r6, r0, #120586240	; 0x7300000
 234:	82060204 	andhi	r0, r6, #1073741824	; 0x40000000
 238:	820a0306 	andhi	r0, sl, #402653184	; 0x18000000
 23c:	4b686734 	blmi	1a19f14 <_bss_end+0x1a0ff14>
 240:	4bbb67a2 	blmi	feeda0d0 <_bss_end+0xfeed00d0>
 244:	032f4c83 	teqeq	pc, #33536	; 0x8300
 248:	2f4b820a 	svccs	0x004b820a
 24c:	9f30679f 	svcls	0x0030679f
 250:	01040200 	mrseq	r0, R12_usr
 254:	03f27a03 	mvnseq	r7, #12288	; 0x3000
 258:	674f9e09 	strbvs	r9, [pc, -r9, lsl #28]
 25c:	f3d7f3f3 	vrsra.u64	<illegal reg q15.5>, <illegal reg q9.5>, #41
 260:	834b6b83 	movthi	r6, #48003	; 0xbb83
 264:	04028367 	streq	r8, [r2], #-871	; 0x367
 268:	96010100 	strls	r0, [r1], -r0, lsl #2
 26c:	02000000 	andeq	r0, r0, #0
 270:	00007f00 	andeq	r7, r0, r0, lsl #30
 274:	fb010200 	blx	40a7e <_bss_end+0x36a7e>
 278:	01000d0e 	tsteq	r0, lr, lsl #26
 27c:	00010101 	andeq	r0, r1, r1, lsl #2
 280:	00010000 	andeq	r0, r1, r0
 284:	6f2f0100 	svcvs	0x002f0100
 288:	342f7470 	strtcc	r7, [pc], #-1136	; 290 <_start-0x7d70>
 28c:	4c2d6669 	stcmi	6, cr6, [sp], #-420	; 0xfffffe5c
 290:	72612f53 	rsbvc	r2, r1, #332	; 0x14c
 294:	6f6e2d6d 	svcvs	0x006e2d6d
 298:	652d656e 	strvs	r6, [sp, #-1390]!	; 0x56e
 29c:	2d696261 	sfmcs	f6, 2, [r9, #-388]!	; 0xfffffe7c
 2a0:	2f636367 	svccs	0x00636367
 2a4:	2f62696c 	svccs	0x0062696c
 2a8:	2f636367 	svccs	0x00636367
 2ac:	2d6d7261 	sfmcs	f7, 2, [sp, #-388]!	; 0xfffffe7c
 2b0:	656e6f6e 	strbvs	r6, [lr, #-3950]!	; 0xf6e
 2b4:	6261652d 	rsbvs	r6, r1, #188743680	; 0xb400000
 2b8:	2e342f69 	cdpcs	15, 3, cr2, cr4, cr9, {3}
 2bc:	2f312e37 	svccs	0x00312e37
 2c0:	6c636e69 	stclvs	14, cr6, [r3], #-420	; 0xfffffe5c
 2c4:	00656475 	rsbeq	r6, r5, r5, ror r4
 2c8:	6f727000 	svcvs	0x00727000
 2cc:	73736563 	cmnvc	r3, #415236096	; 0x18c00000
 2d0:	0000632e 	andeq	r6, r0, lr, lsr #6
 2d4:	74730000 	ldrbtvc	r0, [r3], #-0
 2d8:	746e6964 	strbtvc	r6, [lr], #-2404	; 0x964
 2dc:	6363672d 	cmnvs	r3, #11796480	; 0xb40000
 2e0:	0100682e 	tsteq	r0, lr, lsr #16
 2e4:	72700000 	rsbsvc	r0, r0, #0
 2e8:	7365636f 	cmnvc	r5, #-1140850687	; 0xbc000001
 2ec:	00682e73 	rsbeq	r2, r8, r3, ror lr
 2f0:	00000000 	andeq	r0, r0, r0
 2f4:	44020500 	strmi	r0, [r2], #-1280	; 0x500
 2f8:	16000085 	strne	r0, [r0], -r5, lsl #1
 2fc:	2108679f 			; <UNDEFINED> instruction: 0x2108679f
 300:	01000402 	tsteq	r0, r2, lsl #8
 304:	0000c501 	andeq	ip, r0, r1, lsl #10
 308:	92000200 	andls	r0, r0, #0
 30c:	02000000 	andeq	r0, r0, #0
 310:	0d0efb01 	vstreq	d15, [lr, #-4]
 314:	01010100 	mrseq	r0, (UNDEF: 17)
 318:	00000001 	andeq	r0, r0, r1
 31c:	01000001 	tsteq	r0, r1
 320:	74706f2f 	ldrbtvc	r6, [r0], #-3887	; 0xf2f
 324:	6669342f 	strbtvs	r3, [r9], -pc, lsr #8
 328:	2f534c2d 	svccs	0x00534c2d
 32c:	2d6d7261 	sfmcs	f7, 2, [sp, #-388]!	; 0xfffffe7c
 330:	656e6f6e 	strbvs	r6, [lr, #-3950]!	; 0xf6e
 334:	6261652d 	rsbvs	r6, r1, #188743680	; 0xb400000
 338:	63672d69 	cmnvs	r7, #6720	; 0x1a40
 33c:	696c2f63 	stmdbvs	ip!, {r0, r1, r5, r6, r8, r9, sl, fp, sp}^
 340:	63672f62 	cmnvs	r7, #392	; 0x188
 344:	72612f63 	rsbvc	r2, r1, #396	; 0x18c
 348:	6f6e2d6d 	svcvs	0x006e2d6d
 34c:	652d656e 	strvs	r6, [sp, #-1390]!	; 0x56e
 350:	2f696261 	svccs	0x00696261
 354:	2e372e34 	mrccs	14, 1, r2, cr7, cr4, {1}
 358:	6e692f31 	mcrvs	15, 3, r2, cr9, cr1, {1}
 35c:	64756c63 	ldrbtvs	r6, [r5], #-3171	; 0xc63
 360:	64000065 	strvs	r0, [r0], #-101	; 0x65
 364:	61707369 	cmnvs	r0, r9, ror #6
 368:	65686374 	strbvs	r6, [r8, #-884]!	; 0x374
 36c:	00632e72 	rsbeq	r2, r3, r2, ror lr
 370:	70000000 	andvc	r0, r0, r0
 374:	65636f72 	strbvs	r6, [r3, #-3954]!	; 0xf72
 378:	682e7373 	stmdavs	lr!, {r0, r1, r4, r5, r6, r8, r9, ip, sp, lr}
 37c:	00000000 	andeq	r0, r0, r0
 380:	69647473 	stmdbvs	r4!, {r0, r1, r4, r5, r6, sl, ip, sp, lr}^
 384:	672d746e 	strvs	r7, [sp, -lr, ror #8]!
 388:	682e6363 	stmdavs	lr!, {r0, r1, r5, r6, r8, r9, sp, lr}
 38c:	00000100 	andeq	r0, r0, r0, lsl #2
 390:	70736964 	rsbsvc	r6, r3, r4, ror #18
 394:	68637461 	stmdavs	r3!, {r0, r5, r6, sl, ip, sp, lr}^
 398:	682e7265 	stmdavs	lr!, {r0, r2, r5, r6, r9, ip, sp, lr}
 39c:	00000000 	andeq	r0, r0, r0
 3a0:	02050000 	andeq	r0, r5, #0
 3a4:	00008590 	muleq	r0, r0, r5
 3a8:	84834c15 	strhi	r4, [r3], #3093	; 0xc15
 3ac:	83838383 	orrhi	r8, r3, #201326594	; 0xc000002
 3b0:	83838383 	orrhi	r8, r3, #201326594	; 0xc000002
 3b4:	83838383 	orrhi	r8, r3, #201326594	; 0xc000002
 3b8:	84836985 	strhi	r6, [r3], #2437	; 0x985
 3bc:	83838383 	orrhi	r8, r3, #201326594	; 0xc000002
 3c0:	83838383 	orrhi	r8, r3, #201326594	; 0xc000002
 3c4:	83838383 	orrhi	r8, r3, #201326594	; 0xc000002
 3c8:	00060284 	andeq	r0, r6, r4, lsl #5
 3cc:	Address 0x00000000000003cc is out of bounds.


Disassembly of section .debug_info:

00000000 <.debug_info>:
   0:	0000006f 	andeq	r0, r0, pc, rrx
   4:	00000002 	andeq	r0, r0, r2
   8:	01040000 	mrseq	r0, (UNDEF: 4)
   c:	00000000 	andeq	r0, r0, r0
  10:	00008000 	andeq	r8, r0, r0
  14:	00008078 	andeq	r8, r0, r8, ror r0
  18:	74636576 	strbtvc	r6, [r3], #-1398	; 0x576
  1c:	2e73726f 	cdpcs	2, 7, cr7, cr3, cr15, {3}
  20:	682f0073 	stmdavs	pc!, {r0, r1, r4, r5, r6}	; <UNPREDICTABLE>
  24:	2f656d6f 	svccs	0x00656d6f
  28:	6c656874 	stclvs	8, cr6, [r5], #-464	; 0xfffffe30
  2c:	65627365 	strbvs	r7, [r2, #-869]!	; 0x365
  30:	442f7875 	strtmi	r7, [pc], #-2165	; 38 <_start-0x7fc8>
  34:	6d75636f 	ldclvs	3, cr6, [r5, #-444]!	; 0xfffffe44
  38:	73746e65 	cmnvc	r4, #1616	; 0x650
  3c:	6e696d2f 	cdpvs	13, 6, cr6, cr9, cr15, {1}
  40:	534f2d69 	movtpl	r2, #64873	; 0xfd69
  44:	4950522d 	ldmdbmi	r0, {r0, r2, r3, r5, r9, ip, lr}^
  48:	64726f2f 	ldrbtvs	r6, [r2], #-3887	; 0xf2f
  4c:	616e6e6f 	cmnvs	lr, pc, ror #28
  50:	6d65636e 	stclvs	3, cr6, [r5, #-440]!	; 0xfffffe48
  54:	5f746e65 	svcpl	0x00746e65
  58:	6c6c6f63 	stclvs	15, cr6, [ip], #-396	; 0xfffffe74
  5c:	726f6261 	rsbvc	r6, pc, #268435462	; 0x10000006
  60:	66697461 	strbtvs	r7, [r9], -r1, ror #8
  64:	554e4700 	strbpl	r4, [lr, #-1792]	; 0x700
  68:	20534120 	subscs	r4, r3, r0, lsr #2
  6c:	32322e32 	eorscc	r2, r2, #800	; 0x320
  70:	32800100 	addcc	r0, r0, #0
  74:	02000001 	andeq	r0, r0, #1
  78:	00001400 	andeq	r1, r0, r0, lsl #8
  7c:	a8010400 	stmdage	r1, {sl}
  80:	01000000 	mrseq	r0, (UNDEF: 0)
  84:	00000000 	andeq	r0, r0, r0
  88:	0000005a 	andeq	r0, r0, sl, asr r0
  8c:	00008078 	andeq	r8, r0, r8, ror r0
  90:	00008110 	andeq	r8, r0, r0, lsl r1
  94:	00000053 	andeq	r0, r0, r3, asr r0
  98:	1a060102 	bne	1804a8 <_bss_end+0x1764a8>
  9c:	02000000 	andeq	r0, r0, #0
  a0:	00b40502 	adcseq	r0, r4, r2, lsl #10
  a4:	04020000 	streq	r0, [r2], #-0
  a8:	00009305 	andeq	r9, r0, r5, lsl #6
  ac:	05080200 	streq	r0, [r8, #-512]	; 0x200
  b0:	0000008e 	andeq	r0, r0, lr, lsl #1
  b4:	18080102 	stmdane	r8, {r1, r8}
  b8:	02000000 	andeq	r0, r0, #0
  bc:	00260702 	eoreq	r0, r6, r2, lsl #14
  c0:	c7030000 	strgt	r0, [r3, -r0]
  c4:	04000000 	streq	r0, [r0], #-0
  c8:	00005a34 	andeq	r5, r0, r4, lsr sl
  cc:	07040200 	streq	r0, [r4, -r0, lsl #4]
  d0:	00000048 	andeq	r0, r0, r8, asr #32
  d4:	43070802 	movwmi	r0, #30722	; 0x7802
  d8:	04000000 	streq	r0, [r0], #-0
  dc:	6e690504 	cdpvs	5, 6, cr0, cr9, cr4, {0}
  e0:	04020074 	streq	r0, [r2], #-116	; 0x74
  e4:	00004d07 	andeq	r4, r0, r7, lsl #26
  e8:	00120500 	andseq	r0, r2, r0, lsl #10
  ec:	02080000 	andeq	r0, r8, #0
  f0:	00009d05 	andeq	r9, r0, r5, lsl #26
  f4:	70730600 	rsbsvc	r0, r3, r0, lsl #12
  f8:	9d060200 	sfmls	f0, 4, [r6, #-0]
  fc:	02000000 	andeq	r0, r0, #0
 100:	70060023 	andvc	r0, r6, r3, lsr #32
 104:	07020063 	streq	r0, [r2, -r3, rrx]
 108:	0000009d 	muleq	r0, sp, r0
 10c:	00042302 	andeq	r2, r4, r2, lsl #6
 110:	004f0407 	subeq	r0, pc, r7, lsl #8
 114:	01080000 	mrseq	r0, (UNDEF: 8)
 118:	00000039 	andeq	r0, r0, r9, lsr r0
 11c:	80780b01 	rsbshi	r0, r8, r1, lsl #22
 120:	80940000 	addshi	r0, r4, r0
 124:	00000000 	andeq	r0, r0, r0
 128:	08010000 	stmdaeq	r1, {}	; <UNPREDICTABLE>
 12c:	00003e01 	andeq	r3, r0, r1, lsl #28
 130:	94140100 	ldrls	r0, [r4], #-256	; 0x100
 134:	b8000080 	stmdalt	r0, {r7}
 138:	20000080 	andcs	r0, r0, r0, lsl #1
 13c:	01000000 	mrseq	r0, (UNDEF: 0)
 140:	000a0109 	andeq	r0, sl, r9, lsl #2
 144:	1f010000 	svcne	0x00010000
 148:	00006801 	andeq	r6, r0, r1, lsl #16
 14c:	0080b800 	addeq	fp, r0, r0, lsl #16
 150:	00811000 	addeq	r1, r1, r0
 154:	00004000 	andeq	r4, r0, r0
 158:	9c0a0100 	stflss	f0, [sl], {-0}
 15c:	03000000 	movweq	r0, #0
 160:	0000f903 	andeq	pc, r0, r3, lsl #18
 164:	03050100 	movweq	r0, #20736	; 0x5100
 168:	00009014 	andeq	r9, r0, r4, lsl r0
 16c:	00760407 	rsbseq	r0, r6, r7, lsl #8
 170:	d00a0000 	andle	r0, sl, r0
 174:	01000000 	mrseq	r0, (UNDEF: 0)
 178:	00007606 	andeq	r7, r0, r6, lsl #12
 17c:	03050100 	movweq	r0, #20736	; 0x5100
 180:	00009004 	andeq	r9, r0, r4
 184:	0000d60a 	andeq	sp, r0, sl, lsl #12
 188:	76070100 	strvc	r0, [r7], -r0, lsl #2
 18c:	01000000 	mrseq	r0, (UNDEF: 0)
 190:	90180305 	andsls	r0, r8, r5, lsl #6
 194:	be0a0000 	cdplt	0, 0, cr0, cr10, cr0, {0}
 198:	01000000 	mrseq	r0, (UNDEF: 0)
 19c:	00007608 	andeq	r7, r0, r8, lsl #12
 1a0:	03050100 	movweq	r0, #20736	; 0x5100
 1a4:	0000900c 	andeq	r9, r0, ip
 1a8:	0000d400 	andeq	sp, r0, r0, lsl #8
 1ac:	b3000200 	movwlt	r0, #512	; 0x200
 1b0:	04000000 	streq	r0, [r0], #-0
 1b4:	0000a801 	andeq	sl, r0, r1, lsl #16
 1b8:	00ee0100 	rsceq	r0, lr, r0, lsl #2
 1bc:	005a0000 	subseq	r0, sl, r0
 1c0:	81100000 	tsthi	r0, r0
 1c4:	82440000 	subhi	r0, r4, #0
 1c8:	01250000 	teqeq	r5, r0
 1cc:	01020000 	mrseq	r0, (UNDEF: 2)
 1d0:	00000114 	andeq	r0, r0, r4, lsl r1
 1d4:	81101701 	tsthi	r0, r1, lsl #14
 1d8:	81280000 	teqhi	r8, r0
 1dc:	00600000 	rsbeq	r0, r0, r0
 1e0:	02010000 	andeq	r0, r1, #0
 1e4:	0000dc01 	andeq	sp, r0, r1, lsl #24
 1e8:	281e0100 	ldmdacs	lr, {r8}
 1ec:	40000081 	andmi	r0, r0, r1, lsl #1
 1f0:	80000081 	andhi	r0, r0, r1, lsl #1
 1f4:	01000000 	mrseq	r0, (UNDEF: 0)
 1f8:	01020103 	tsteq	r2, r3, lsl #2
 1fc:	26010000 	strcs	r0, [r1], -r0
 200:	00008140 	andeq	r8, r0, r0, asr #2
 204:	00008180 	andeq	r8, r0, r0, lsl #3
 208:	000000a0 	andeq	r0, r0, r0, lsr #1
 20c:	00007601 	andeq	r7, r0, r1, lsl #12
 210:	78720400 	ldmdavc	r2!, {sl}^
 214:	76280100 	strtvc	r0, [r8], -r0, lsl #2
 218:	02000000 	andeq	r0, r0, #0
 21c:	05007491 	streq	r7, [r0, #-1169]	; 0x491
 220:	004d0704 	subeq	r0, sp, r4, lsl #14
 224:	01020000 	mrseq	r0, (UNDEF: 2)
 228:	00000125 	andeq	r0, r0, r5, lsr #2
 22c:	81803501 	orrhi	r3, r0, r1, lsl #10
 230:	81980000 	orrshi	r0, r8, r0
 234:	00cc0000 	sbceq	r0, ip, r0
 238:	02010000 	andeq	r0, r1, #0
 23c:	0000f301 	andeq	pc, r0, r1, lsl #6
 240:	983b0100 	ldmdals	fp!, {r8}
 244:	b0000081 	andlt	r0, r0, r1, lsl #1
 248:	ec000081 	stc	0, cr0, [r0], {129}	; 0x81
 24c:	01000000 	mrseq	r0, (UNDEF: 0)
 250:	00fa0106 	rscseq	r0, sl, r6, lsl #2
 254:	44010000 	strmi	r0, [r1], #-0
 258:	000081b0 			; <UNDEFINED> instruction: 0x000081b0
 25c:	00008244 	andeq	r8, r0, r4, asr #4
 260:	0000010c 	andeq	r0, r0, ip, lsl #2
 264:	61720401 	cmnvs	r2, r1, lsl #8
 268:	76460100 	strbvc	r0, [r6], -r0, lsl #2
 26c:	02000000 	andeq	r0, r0, #0
 270:	72047491 	andvc	r7, r4, #-1862270976	; 0x91000000
 274:	47010078 	smlsdxmi	r1, r8, r0, r0
 278:	00000076 	andeq	r0, r0, r6, ror r0
 27c:	00709102 	rsbseq	r9, r0, r2, lsl #2
 280:	0001d300 	andeq	sp, r1, r0, lsl #6
 284:	25000200 	strcs	r0, [r0, #-512]	; 0x200
 288:	04000001 	streq	r0, [r0], #-1
 28c:	0000a801 	andeq	sl, r0, r1, lsl #16
 290:	01850100 	orreq	r0, r5, r0, lsl #2
 294:	005a0000 	subseq	r0, sl, r0
 298:	82440000 	subhi	r0, r4, #0
 29c:	85440000 	strbhi	r0, [r4, #-0]
 2a0:	01780000 	cmneq	r8, r0
 2a4:	01020000 	mrseq	r0, (UNDEF: 2)
 2a8:	00001a06 	andeq	r1, r0, r6, lsl #20
 2ac:	05020200 	streq	r0, [r2, #-512]	; 0x200
 2b0:	000000b4 	strheq	r0, [r0], -r4
 2b4:	93050402 	movwls	r0, #21506	; 0x5402
 2b8:	02000000 	andeq	r0, r0, #0
 2bc:	008e0508 	addeq	r0, lr, r8, lsl #10
 2c0:	01020000 	mrseq	r0, (UNDEF: 2)
 2c4:	00001808 	andeq	r1, r0, r8, lsl #16
 2c8:	07020200 	streq	r0, [r2, -r0, lsl #4]
 2cc:	00000026 	andeq	r0, r0, r6, lsr #32
 2d0:	0000c703 	andeq	ip, r0, r3, lsl #14
 2d4:	5a340200 	bpl	d00adc <_bss_end+0xcf6adc>
 2d8:	02000000 	andeq	r0, r0, #0
 2dc:	00480704 	subeq	r0, r8, r4, lsl #14
 2e0:	08020000 	stmdaeq	r2, {}	; <UNPREDICTABLE>
 2e4:	00004307 	andeq	r4, r0, r7, lsl #6
 2e8:	05040400 	streq	r0, [r4, #-1024]	; 0x400
 2ec:	00746e69 	rsbseq	r6, r4, r9, ror #28
 2f0:	4d070402 	cfstrsmi	mvf0, [r7, #-8]
 2f4:	03000000 	movweq	r0, #0
 2f8:	0000012d 	andeq	r0, r0, sp, lsr #2
 2fc:	004f0603 	subeq	r0, pc, r3, lsl #12
 300:	01050000 	mrseq	r0, (UNDEF: 5)
 304:	00000160 	andeq	r0, r0, r0, ror #2
 308:	de012601 	cfmadd32le	mvax0, mvfx2, mvfx1, mvfx1
 30c:	44000000 	strmi	r0, [r0], #-0
 310:	8c000082 	stchi	0, cr0, [r0], {130}	; 0x82
 314:	38000083 	stmdacc	r0, {r0, r1, r7}
 318:	01000001 	tsteq	r0, r1
 31c:	000000de 	ldrdeq	r0, [r0], -lr
 320:	00021706 	andeq	r1, r2, r6, lsl #14
 324:	76260100 	strtvc	r0, [r6], -r0, lsl #2
 328:	02000000 	andeq	r0, r0, #0
 32c:	c9076491 	stmdbgt	r7, {r0, r4, r7, sl, sp, lr}
 330:	01000001 	tsteq	r0, r1
 334:	0000de28 	andeq	sp, r0, r8, lsr #28
 338:	74910200 	ldrvc	r0, [r1], #512	; 0x200
 33c:	0001ef07 	andeq	lr, r1, r7, lsl #30
 340:	68320100 	ldmdavs	r2!, {r8}
 344:	02000000 	andeq	r0, r0, #0
 348:	00087091 	muleq	r8, r1, r0
 34c:	07000000 	streq	r0, [r0, -r0]
 350:	000001a3 	andeq	r0, r0, r3, lsr #3
 354:	00763501 	rsbseq	r3, r6, r1, lsl #10
 358:	91020000 	mrsls	r0, (UNDEF: 2)
 35c:	0900006c 	stmdbeq	r0, {r2, r3, r5, r6}
 360:	00007604 	andeq	r7, r0, r4, lsl #12
 364:	4c010500 	cfstr32mi	mvfx0, [r1], {-0}
 368:	01000001 	tsteq	r0, r1
 36c:	0068014a 	rsbeq	r0, r8, sl, asr #2
 370:	838c0000 	orrhi	r0, ip, #0
 374:	83e40000 	mvnhi	r0, #0
 378:	01640000 	cmneq	r4, r0
 37c:	11010000 	mrsne	r0, (UNDEF: 1)
 380:	06000001 	streq	r0, [r0], -r1
 384:	000001b3 			; <UNDEFINED> instruction: 0x000001b3
 388:	00de4a01 	sbcseq	r4, lr, r1, lsl #20
 38c:	91020000 	mrsls	r0, (UNDEF: 2)
 390:	010a0074 	tsteq	sl, r4, ror r0
 394:	0000016f 	andeq	r0, r0, pc, ror #2
 398:	e4015b01 	str	r5, [r1], #-2817	; 0xb01
 39c:	64000083 	strvs	r0, [r0], #-131	; 0x83
 3a0:	90000084 	andls	r0, r0, r4, lsl #1
 3a4:	01000001 	tsteq	r0, r1
 3a8:	0000013a 	andeq	r0, r0, sl, lsr r1
 3ac:	0001b306 	andeq	fp, r1, r6, lsl #6
 3b0:	de5b0100 	rdflee	f0, f3, f0
 3b4:	02000000 	andeq	r0, r0, #0
 3b8:	0a007c91 	beq	1f604 <_bss_end+0x15604>
 3bc:	00019601 	andeq	r9, r1, r1, lsl #12
 3c0:	016a0100 	cmneq	sl, r0, lsl #2
 3c4:	00008464 	andeq	r8, r0, r4, ror #8
 3c8:	00008508 	andeq	r8, r0, r8, lsl #10
 3cc:	000001b0 			; <UNDEFINED> instruction: 0x000001b0
 3d0:	00017101 	andeq	r7, r1, r1, lsl #2
 3d4:	01b30600 			; <UNDEFINED> instruction: 0x01b30600
 3d8:	6a010000 	bvs	403e0 <_bss_end+0x363e0>
 3dc:	000000de 	ldrdeq	r0, [r0], -lr
 3e0:	067c9102 	ldrbteq	r9, [ip], -r2, lsl #2
 3e4:	00000217 	andeq	r0, r0, r7, lsl r2
 3e8:	00766a01 	rsbseq	r6, r6, r1, lsl #20
 3ec:	91020000 	mrsls	r0, (UNDEF: 2)
 3f0:	010a0078 	tsteq	sl, r8, ror r0
 3f4:	000001db 	ldrdeq	r0, [r0], -fp
 3f8:	08017501 	stmdaeq	r1, {r0, r8, sl, ip, sp, lr}
 3fc:	44000085 	strmi	r0, [r0], #-133	; 0x85
 400:	d0000085 	andle	r0, r0, r5, lsl #1
 404:	01000001 	tsteq	r0, r1
 408:	0000019a 	muleq	r0, sl, r1
 40c:	0001b306 	andeq	fp, r1, r6, lsl #6
 410:	de750100 	rpwles	f0, f5, f0
 414:	02000000 	andeq	r0, r0, #0
 418:	0b007c91 	bleq	1f664 <_bss_end+0x15664>
 41c:	00000041 	andeq	r0, r0, r1, asr #32
 420:	000001ab 	andeq	r0, r0, fp, lsr #3
 424:	0001ab0c 	andeq	sl, r1, ip, lsl #22
 428:	0007ff00 	andeq	pc, r7, r0, lsl #30
 42c:	c0070402 	andgt	r0, r7, r2, lsl #8
 430:	0d000001 	stceq	0, cr0, [r0, #-4]
 434:	000001bb 			; <UNDEFINED> instruction: 0x000001bb
 438:	019a1801 	orrseq	r1, sl, r1, lsl #16
 43c:	05010000 	streq	r0, [r1, #-0]
 440:	00902403 	addseq	r2, r0, r3, lsl #8
 444:	013e0d00 	teqeq	lr, r0, lsl #26
 448:	1e010000 	cdpne	0, 0, cr0, cr1, cr0, {0}
 44c:	00000068 	andeq	r0, r0, r8, rrx
 450:	20030501 	andcs	r0, r3, r1, lsl #10
 454:	00000090 	muleq	r0, r0, r0
 458:	000000fc 	strdeq	r0, [r0], -ip
 45c:	01e30002 	mvneq	r0, r2
 460:	01040000 	mrseq	r0, (UNDEF: 4)
 464:	000000a8 	andeq	r0, r0, r8, lsr #1
 468:	00020701 	andeq	r0, r2, r1, lsl #14
 46c:	00005a00 	andeq	r5, r0, r0, lsl #20
 470:	00854400 	addeq	r4, r5, r0, lsl #8
 474:	00859000 	addeq	r9, r5, r0
 478:	00026b00 	andeq	r6, r2, r0, lsl #22
 47c:	06010200 	streq	r0, [r1], -r0, lsl #4
 480:	0000001a 	andeq	r0, r0, sl, lsl r0
 484:	b4050202 	strlt	r0, [r5], #-514	; 0x202
 488:	02000000 	andeq	r0, r0, #0
 48c:	00930504 	addseq	r0, r3, r4, lsl #10
 490:	08020000 	stmdaeq	r2, {}	; <UNPREDICTABLE>
 494:	00008e05 	andeq	r8, r0, r5, lsl #28
 498:	08010200 	stmdaeq	r1, {r9}
 49c:	00000018 	andeq	r0, r0, r8, lsl r0
 4a0:	26070202 	strcs	r0, [r7], -r2, lsl #4
 4a4:	03000000 	movweq	r0, #0
 4a8:	000000c7 	andeq	r0, r0, r7, asr #1
 4ac:	005a3402 	subseq	r3, sl, r2, lsl #8
 4b0:	04020000 	streq	r0, [r2], #-0
 4b4:	00004807 	andeq	r4, r0, r7, lsl #16
 4b8:	07080200 	streq	r0, [r8, -r0, lsl #4]
 4bc:	00000043 	andeq	r0, r0, r3, asr #32
 4c0:	69050404 	stmdbvs	r5, {r2, sl}
 4c4:	0200746e 	andeq	r7, r0, #1845493760	; 0x6e000000
 4c8:	004d0704 	subeq	r0, sp, r4, lsl #14
 4cc:	00030000 	andeq	r0, r3, r0
 4d0:	03000002 	movweq	r0, #2
 4d4:	00008103 	andeq	r8, r0, r3, lsl #2
 4d8:	87040500 	strhi	r0, [r4, -r0, lsl #10]
 4dc:	06000000 	streq	r0, [r0], -r0
 4e0:	00120701 	andseq	r0, r2, r1, lsl #14
 4e4:	03080000 	movweq	r0, #32768	; 0x8000
 4e8:	0000b005 	andeq	fp, r0, r5
 4ec:	70730800 	rsbsvc	r0, r3, r0, lsl #16
 4f0:	b0060300 	andlt	r0, r6, r0, lsl #6
 4f4:	02000000 	andeq	r0, r0, #0
 4f8:	70080023 	andvc	r0, r8, r3, lsr #32
 4fc:	07030063 	streq	r0, [r3, -r3, rrx]
 500:	000000b0 	strheq	r0, [r0], -r0	; <UNPREDICTABLE>
 504:	00042302 	andeq	r2, r4, r2, lsl #6
 508:	004f0405 	subeq	r0, pc, r5, lsl #8
 50c:	01090000 	mrseq	r0, (UNDEF: 9)
 510:	000001f7 	strdeq	r0, [r0], -r7
 514:	44010401 	strmi	r0, [r1], #-1025	; 0x401
 518:	90000085 	andls	r0, r0, r5, lsl #1
 51c:	f0000085 			; <UNDEFINED> instruction: 0xf0000085
 520:	01000001 	tsteq	r0, r1
 524:	000000f9 	strdeq	r0, [r0], -r9
 528:	7874630a 	ldmdavc	r4!, {r1, r3, r8, r9, sp, lr}^
 52c:	f9040100 			; <UNDEFINED> instruction: 0xf9040100
 530:	02000000 	andeq	r0, r0, #0
 534:	660a7491 			; <UNDEFINED> instruction: 0x660a7491
 538:	76040100 	strvc	r0, [r4], -r0, lsl #2
 53c:	02000000 	andeq	r0, r0, #0
 540:	110b7091 	swpne	r7, r1, [fp]
 544:	01000002 	tsteq	r0, r2
 548:	00006f04 	andeq	r6, r0, r4, lsl #30
 54c:	6c910200 	lfmvs	f0, 4, [r1], {0}
 550:	89040500 	stmdbhi	r4, {r8, sl}
 554:	00000000 	andeq	r0, r0, r0
 558:	00000116 	andeq	r0, r0, r6, lsl r1
 55c:	02800002 	addeq	r0, r0, #2
 560:	01040000 	mrseq	r0, (UNDEF: 4)
 564:	000000a8 	andeq	r0, r0, r8, lsr #1
 568:	00025f01 	andeq	r5, r2, r1, lsl #30
 56c:	00021c00 	andeq	r1, r2, r0, lsl #24
 570:	00859000 	addeq	r9, r5, r0
 574:	00879000 	addeq	r9, r7, r0
 578:	00030500 	andeq	r0, r3, r0, lsl #10
 57c:	06010200 	streq	r0, [r1], -r0, lsl #4
 580:	0000001a 	andeq	r0, r0, sl, lsl r0
 584:	b4050202 	strlt	r0, [r5], #-514	; 0x202
 588:	02000000 	andeq	r0, r0, #0
 58c:	00930504 	addseq	r0, r3, r4, lsl #10
 590:	08020000 	stmdaeq	r2, {}	; <UNPREDICTABLE>
 594:	00008e05 	andeq	r8, r0, r5, lsl #28
 598:	08010200 	stmdaeq	r1, {r9}
 59c:	00000018 	andeq	r0, r0, r8, lsl r0
 5a0:	26070202 	strcs	r0, [r7], -r2, lsl #4
 5a4:	03000000 	movweq	r0, #0
 5a8:	000000c7 	andeq	r0, r0, r7, asr #1
 5ac:	005a3403 	subseq	r3, sl, r3, lsl #8
 5b0:	04020000 	streq	r0, [r2], #-0
 5b4:	00004807 	andeq	r4, r0, r7, lsl #16
 5b8:	07080200 	streq	r0, [r8, -r0, lsl #4]
 5bc:	00000043 	andeq	r0, r0, r3, asr #32
 5c0:	69050404 	stmdbvs	r5, {r2, sl}
 5c4:	0200746e 	andeq	r7, r0, #1845493760	; 0x6e000000
 5c8:	004d0704 	subeq	r0, sp, r4, lsl #14
 5cc:	12050000 	andne	r0, r5, #0
 5d0:	3c000000 	stccc	0, cr0, [r0], {-0}
 5d4:	00ab0502 	adceq	r0, fp, r2, lsl #10
 5d8:	73060000 	movwvc	r0, #24576	; 0x6000
 5dc:	06020070 			; <UNDEFINED> instruction: 0x06020070
 5e0:	000000ab 	andeq	r0, r0, fp, lsr #1
 5e4:	06002302 	streq	r2, [r0], -r2, lsl #6
 5e8:	02006370 	andeq	r6, r0, #-1073741823	; 0xc0000001
 5ec:	0000ab07 	andeq	sl, r0, r7, lsl #22
 5f0:	04230200 	strteq	r0, [r3], #-512	; 0x200
 5f4:	00026c07 	andeq	r6, r2, r7, lsl #24
 5f8:	b1080200 	mrslt	r0, R8_fiq
 5fc:	02000000 	andeq	r0, r0, #0
 600:	08000823 	stmdaeq	r0, {r0, r1, r5, fp}
 604:	00004f04 	andeq	r4, r0, r4, lsl #30
 608:	004f0900 	subeq	r0, pc, r0, lsl #18
 60c:	00c10000 	sbceq	r0, r1, r0
 610:	c10a0000 	mrsgt	r0, (UNDEF: 10)
 614:	0c000000 	stceq	0, cr0, [r0], {-0}
 618:	07040200 	streq	r0, [r4, -r0, lsl #4]
 61c:	000001c0 	andeq	r0, r0, r0, asr #3
 620:	00001203 	andeq	r1, r0, r3, lsl #4
 624:	76090200 	strvc	r0, [r9], -r0, lsl #4
 628:	0b000000 	bleq	630 <_start-0x79d0>
 62c:	00027601 	andeq	r7, r2, r1, lsl #12
 630:	01040100 	mrseq	r0, (UNDEF: 20)
 634:	00008590 	muleq	r0, r0, r5
 638:	00008790 	muleq	r0, r0, r7
 63c:	0000021c 	andeq	r0, r0, ip, lsl r2
 640:	0000fc01 	andeq	pc, r0, r1, lsl #24
 644:	74630c00 	strbtvc	r0, [r3], #-3072	; 0xc00
 648:	04010078 	streq	r0, [r1], #-120	; 0x78
 64c:	000000fc 	strdeq	r0, [r0], -ip
 650:	007c9102 	rsbseq	r9, ip, r2, lsl #2
 654:	00760408 	rsbseq	r0, r6, r8, lsl #8
 658:	9c0d0000 	stcls	0, cr0, [sp], {-0}
 65c:	04000000 	streq	r0, [r0], #-0
 660:	00011305 	andeq	r1, r1, r5, lsl #6
 664:	00030500 	andeq	r0, r3, r0, lsl #10
 668:	08000090 	stmdaeq	r0, {r4, r7}
 66c:	0000c804 	andeq	ip, r0, r4, lsl #16
	...

Disassembly of section .debug_abbrev:

00000000 <.debug_abbrev>:
   0:	10001101 	andne	r1, r0, r1, lsl #2
   4:	12011106 	andne	r1, r1, #-2147483647	; 0x80000001
   8:	1b080301 	blne	200c14 <_bss_end+0x1f6c14>
   c:	13082508 	movwne	r2, #34056	; 0x8508
  10:	00000005 	andeq	r0, r0, r5
  14:	25011101 	strcs	r1, [r1, #-257]	; 0x101
  18:	030b130e 	movweq	r1, #45838	; 0xb30e
  1c:	110e1b0e 	tstne	lr, lr, lsl #22
  20:	10011201 	andne	r1, r1, r1, lsl #4
  24:	02000006 	andeq	r0, r0, #6
  28:	0b0b0024 	bleq	2c00c0 <_bss_end+0x2b60c0>
  2c:	0e030b3e 	vmoveq.16	d3[0], r0
  30:	16030000 	strne	r0, [r3], -r0
  34:	3a0e0300 	bcc	380c3c <_bss_end+0x376c3c>
  38:	490b3b0b 	stmdbmi	fp, {r0, r1, r3, r8, r9, fp, ip, sp}
  3c:	04000013 	streq	r0, [r0], #-19
  40:	0b0b0024 	bleq	2c00d8 <_bss_end+0x2b60d8>
  44:	08030b3e 	stmdaeq	r3, {r1, r2, r3, r4, r5, r8, r9, fp}
  48:	13050000 	movwne	r0, #20480	; 0x5000
  4c:	0b0e0301 	bleq	380c58 <_bss_end+0x376c58>
  50:	3b0b3a0b 	blcc	2ce884 <_bss_end+0x2c4884>
  54:	0013010b 	andseq	r0, r3, fp, lsl #2
  58:	000d0600 	andeq	r0, sp, r0, lsl #12
  5c:	0b3a0803 	bleq	e82070 <_bss_end+0xe78070>
  60:	13490b3b 	movtne	r0, #39739	; 0x9b3b
  64:	00000a38 	andeq	r0, r0, r8, lsr sl
  68:	0b000f07 	bleq	3c8c <_start-0x4374>
  6c:	0013490b 	andseq	r4, r3, fp, lsl #18
  70:	002e0800 	eoreq	r0, lr, r0, lsl #16
  74:	0e030c3f 	mcreq	12, 0, r0, cr3, cr15, {1}
  78:	0b3b0b3a 	bleq	ec2d68 <_bss_end+0xeb8d68>
  7c:	01120111 	tsteq	r2, r1, lsl r1
  80:	42960640 	addsmi	r0, r6, #67108864	; 0x4000000
  84:	0900000c 	stmdbeq	r0, {r2, r3}
  88:	0c3f002e 	ldceq	0, cr0, [pc], #-184	; ffffffd8 <_bss_end+0xffff5fd8>
  8c:	0b3a0e03 	bleq	e838a0 <_bss_end+0xe798a0>
  90:	0c270b3b 	stceq	11, cr0, [r7], #-236	; 0xffffff14
  94:	01111349 	tsteq	r1, r9, asr #6
  98:	06400112 			; <UNDEFINED> instruction: 0x06400112
  9c:	000c4296 	muleq	ip, r6, r2
  a0:	00340a00 	eorseq	r0, r4, r0, lsl #20
  a4:	0b3a0e03 	bleq	e838b8 <_bss_end+0xe798b8>
  a8:	13490b3b 	movtne	r0, #39739	; 0x9b3b
  ac:	0a020c3f 	beq	831b0 <_bss_end+0x791b0>
  b0:	01000000 	mrseq	r0, (UNDEF: 0)
  b4:	0e250111 	mcreq	1, 1, r0, cr5, cr1, {0}
  b8:	0e030b13 	vmoveq.32	d3[0], r0
  bc:	01110e1b 	tsteq	r1, fp, lsl lr
  c0:	06100112 			; <UNDEFINED> instruction: 0x06100112
  c4:	2e020000 	cdpcs	0, 0, cr0, cr2, cr0, {0}
  c8:	030c3f00 	movweq	r3, #52992	; 0xcf00
  cc:	3b0b3a0e 	blcc	2ce90c <_bss_end+0x2c490c>
  d0:	1201110b 	andne	r1, r1, #-1073741822	; 0xc0000002
  d4:	96064001 	strls	r4, [r6], -r1
  d8:	00000c42 	andeq	r0, r0, r2, asr #24
  dc:	3f012e03 	svccc	0x00012e03
  e0:	3a0e030c 	bcc	380d18 <_bss_end+0x376d18>
  e4:	110b3b0b 	tstne	fp, fp, lsl #22
  e8:	40011201 	andmi	r1, r1, r1, lsl #4
  ec:	0c429606 	mcrreq	6, 0, r9, r2, cr6
  f0:	00001301 	andeq	r1, r0, r1, lsl #6
  f4:	03003404 	movweq	r3, #1028	; 0x404
  f8:	3b0b3a08 	blcc	2ce920 <_bss_end+0x2c4920>
  fc:	0213490b 	andseq	r4, r3, #180224	; 0x2c000
 100:	0500000a 	streq	r0, [r0, #-10]
 104:	0b0b0024 	bleq	2c019c <_bss_end+0x2b619c>
 108:	0e030b3e 	vmoveq.16	d3[0], r0
 10c:	2e060000 	cdpcs	0, 0, cr0, cr6, cr0, {0}
 110:	030c3f01 	movweq	r3, #52993	; 0xcf01
 114:	3b0b3a0e 	blcc	2ce954 <_bss_end+0x2c4954>
 118:	1201110b 	andne	r1, r1, #-1073741822	; 0xc0000002
 11c:	96064001 	strls	r4, [r6], -r1
 120:	00000c42 	andeq	r0, r0, r2, asr #24
 124:	01110100 	tsteq	r1, r0, lsl #2
 128:	0b130e25 	bleq	4c39c4 <_bss_end+0x4b99c4>
 12c:	0e1b0e03 	cdpeq	14, 1, cr0, cr11, cr3, {0}
 130:	01120111 	tsteq	r2, r1, lsl r1
 134:	00000610 	andeq	r0, r0, r0, lsl r6
 138:	0b002402 	bleq	9148 <heap+0x124>
 13c:	030b3e0b 	movweq	r3, #48651	; 0xbe0b
 140:	0300000e 	movweq	r0, #14
 144:	0e030016 	mcreq	0, 0, r0, cr3, cr6, {0}
 148:	0b3b0b3a 	bleq	ec2e38 <_bss_end+0xeb8e38>
 14c:	00001349 	andeq	r1, r0, r9, asr #6
 150:	0b002404 	bleq	9168 <heap+0x144>
 154:	030b3e0b 	movweq	r3, #48651	; 0xbe0b
 158:	05000008 	streq	r0, [r0, #-8]
 15c:	0c3f012e 	ldfeqs	f0, [pc], #-184	; ac <_start-0x7f54>
 160:	0b3a0e03 	bleq	e83974 <_bss_end+0xe79974>
 164:	0c270b3b 	stceq	11, cr0, [r7], #-236	; 0xffffff14
 168:	01111349 	tsteq	r1, r9, asr #6
 16c:	06400112 			; <UNDEFINED> instruction: 0x06400112
 170:	010c4296 			; <UNDEFINED> instruction: 0x010c4296
 174:	06000013 			; <UNDEFINED> instruction: 0x06000013
 178:	0e030005 	cdpeq	0, 0, cr0, cr3, cr5, {0}
 17c:	0b3b0b3a 	bleq	ec2e6c <_bss_end+0xeb8e6c>
 180:	0a021349 	beq	84eac <_bss_end+0x7aeac>
 184:	34070000 	strcc	r0, [r7], #-0
 188:	3a0e0300 	bcc	380d90 <_bss_end+0x376d90>
 18c:	490b3b0b 	stmdbmi	fp, {r0, r1, r3, r8, r9, fp, ip, sp}
 190:	000a0213 	andeq	r0, sl, r3, lsl r2
 194:	010b0800 	tsteq	fp, r0, lsl #16
 198:	00000655 	andeq	r0, r0, r5, asr r6
 19c:	0b000f09 	bleq	3dc8 <_start-0x4238>
 1a0:	0013490b 	andseq	r4, r3, fp, lsl #18
 1a4:	012e0a00 	teqeq	lr, r0, lsl #20
 1a8:	0e030c3f 	mcreq	12, 0, r0, cr3, cr15, {1}
 1ac:	0b3b0b3a 	bleq	ec2e9c <_bss_end+0xeb8e9c>
 1b0:	01110c27 	tsteq	r1, r7, lsr #24
 1b4:	06400112 			; <UNDEFINED> instruction: 0x06400112
 1b8:	010c4297 			; <UNDEFINED> instruction: 0x010c4297
 1bc:	0b000013 	bleq	210 <_start-0x7df0>
 1c0:	13490101 	movtne	r0, #37121	; 0x9101
 1c4:	00001301 	andeq	r1, r0, r1, lsl #6
 1c8:	4900210c 	stmdbmi	r0, {r2, r3, r8, sp}
 1cc:	00052f13 	andeq	r2, r5, r3, lsl pc
 1d0:	00340d00 	eorseq	r0, r4, r0, lsl #26
 1d4:	0b3a0e03 	bleq	e839e8 <_bss_end+0xe799e8>
 1d8:	13490b3b 	movtne	r0, #39739	; 0x9b3b
 1dc:	0a020c3f 	beq	832e0 <_bss_end+0x792e0>
 1e0:	01000000 	mrseq	r0, (UNDEF: 0)
 1e4:	0e250111 	mcreq	1, 1, r0, cr5, cr1, {0}
 1e8:	0e030b13 	vmoveq.32	d3[0], r0
 1ec:	01110e1b 	tsteq	r1, fp, lsl lr
 1f0:	06100112 			; <UNDEFINED> instruction: 0x06100112
 1f4:	24020000 	strcs	r0, [r2], #-0
 1f8:	3e0b0b00 	vmlacc.f64	d0, d11, d0
 1fc:	000e030b 	andeq	r0, lr, fp, lsl #6
 200:	00160300 	andseq	r0, r6, r0, lsl #6
 204:	0b3a0e03 	bleq	e83a18 <_bss_end+0xe79a18>
 208:	13490b3b 	movtne	r0, #39739	; 0x9b3b
 20c:	24040000 	strcs	r0, [r4], #-0
 210:	3e0b0b00 	vmlacc.f64	d0, d11, d0
 214:	0008030b 	andeq	r0, r8, fp, lsl #6
 218:	000f0500 	andeq	r0, pc, r0, lsl #10
 21c:	13490b0b 	movtne	r0, #39691	; 0x9b0b
 220:	15060000 	strne	r0, [r6, #-0]
 224:	000c2700 	andeq	r2, ip, r0, lsl #14
 228:	01130700 	tsteq	r3, r0, lsl #14
 22c:	0b0b0e03 	bleq	2c3a40 <_bss_end+0x2b9a40>
 230:	0b3b0b3a 	bleq	ec2f20 <_bss_end+0xeb8f20>
 234:	00001301 	andeq	r1, r0, r1, lsl #6
 238:	03000d08 	movweq	r0, #3336	; 0xd08
 23c:	3b0b3a08 	blcc	2cea64 <_bss_end+0x2c4a64>
 240:	3813490b 	ldmdacc	r3, {r0, r1, r3, r8, fp, lr}
 244:	0900000a 	stmdbeq	r0, {r1, r3}
 248:	0c3f012e 	ldfeqs	f0, [pc], #-184	; 198 <_start-0x7e68>
 24c:	0b3a0e03 	bleq	e83a60 <_bss_end+0xe79a60>
 250:	0c270b3b 	stceq	11, cr0, [r7], #-236	; 0xffffff14
 254:	01120111 	tsteq	r2, r1, lsl r1
 258:	42960640 	addsmi	r0, r6, #67108864	; 0x4000000
 25c:	0013010c 	andseq	r0, r3, ip, lsl #2
 260:	00050a00 	andeq	r0, r5, r0, lsl #20
 264:	0b3a0803 	bleq	e82278 <_bss_end+0xe78278>
 268:	13490b3b 	movtne	r0, #39739	; 0x9b3b
 26c:	00000a02 	andeq	r0, r0, r2, lsl #20
 270:	0300050b 	movweq	r0, #1291	; 0x50b
 274:	3b0b3a0e 	blcc	2ceab4 <_bss_end+0x2c4ab4>
 278:	0213490b 	andseq	r4, r3, #180224	; 0x2c000
 27c:	0000000a 	andeq	r0, r0, sl
 280:	25011101 	strcs	r1, [r1, #-257]	; 0x101
 284:	030b130e 	movweq	r1, #45838	; 0xb30e
 288:	110e1b0e 	tstne	lr, lr, lsl #22
 28c:	10011201 	andne	r1, r1, r1, lsl #4
 290:	02000006 	andeq	r0, r0, #6
 294:	0b0b0024 	bleq	2c032c <_bss_end+0x2b632c>
 298:	0e030b3e 	vmoveq.16	d3[0], r0
 29c:	16030000 	strne	r0, [r3], -r0
 2a0:	3a0e0300 	bcc	380ea8 <_bss_end+0x376ea8>
 2a4:	490b3b0b 	stmdbmi	fp, {r0, r1, r3, r8, r9, fp, ip, sp}
 2a8:	04000013 	streq	r0, [r0], #-19
 2ac:	0b0b0024 	bleq	2c0344 <_bss_end+0x2b6344>
 2b0:	08030b3e 	stmdaeq	r3, {r1, r2, r3, r4, r5, r8, r9, fp}
 2b4:	13050000 	movwne	r0, #20480	; 0x5000
 2b8:	0b0e0301 	bleq	380ec4 <_bss_end+0x376ec4>
 2bc:	3b0b3a0b 	blcc	2ceaf0 <_bss_end+0x2c4af0>
 2c0:	0013010b 	andseq	r0, r3, fp, lsl #2
 2c4:	000d0600 	andeq	r0, sp, r0, lsl #12
 2c8:	0b3a0803 	bleq	e822dc <_bss_end+0xe782dc>
 2cc:	13490b3b 	movtne	r0, #39739	; 0x9b3b
 2d0:	00000a38 	andeq	r0, r0, r8, lsr sl
 2d4:	03000d07 	movweq	r0, #3335	; 0xd07
 2d8:	3b0b3a0e 	blcc	2ceb18 <_bss_end+0x2c4b18>
 2dc:	3813490b 	ldmdacc	r3, {r0, r1, r3, r8, fp, lr}
 2e0:	0800000a 	stmdaeq	r0, {r1, r3}
 2e4:	0b0b000f 	bleq	2c0328 <_bss_end+0x2b6328>
 2e8:	00001349 	andeq	r1, r0, r9, asr #6
 2ec:	49010109 	stmdbmi	r1, {r0, r3, r8}
 2f0:	00130113 	andseq	r0, r3, r3, lsl r1
 2f4:	00210a00 	eoreq	r0, r1, r0, lsl #20
 2f8:	0b2f1349 	bleq	bc5024 <_bss_end+0xbbb024>
 2fc:	2e0b0000 	cdpcs	0, 0, cr0, cr11, cr0, {0}
 300:	030c3f01 	movweq	r3, #52993	; 0xcf01
 304:	3b0b3a0e 	blcc	2ceb44 <_bss_end+0x2c4b44>
 308:	110c270b 	tstne	ip, fp, lsl #14
 30c:	40011201 	andmi	r1, r1, r1, lsl #4
 310:	0c429706 	mcrreq	7, 0, r9, r2, cr6
 314:	00001301 	andeq	r1, r0, r1, lsl #6
 318:	0300050c 	movweq	r0, #1292	; 0x50c
 31c:	3b0b3a08 	blcc	2ceb44 <_bss_end+0x2c4b44>
 320:	0213490b 	andseq	r4, r3, #180224	; 0x2c000
 324:	0d00000a 	stceq	0, cr0, [r0, #-40]	; 0xffffffd8
 328:	0e030034 	mcreq	0, 0, r0, cr3, cr4, {1}
 32c:	0b3b0b3a 	bleq	ec301c <_bss_end+0xeb901c>
 330:	0a021349 	beq	8505c <_bss_end+0x7b05c>
 334:	Address 0x0000000000000334 is out of bounds.


Disassembly of section .debug_aranges:

00000000 <.debug_aranges>:
   0:	0000001c 	andeq	r0, r0, ip, lsl r0
   4:	00000002 	andeq	r0, r0, r2
   8:	00040000 	andeq	r0, r4, r0
   c:	00000000 	andeq	r0, r0, r0
  10:	00008000 	andeq	r8, r0, r0
  14:	00000078 	andeq	r0, r0, r8, ror r0
	...
  20:	0000001c 	andeq	r0, r0, ip, lsl r0
  24:	00730002 	rsbseq	r0, r3, r2
  28:	00040000 	andeq	r0, r4, r0
  2c:	00000000 	andeq	r0, r0, r0
  30:	00008078 	andeq	r8, r0, r8, ror r0
  34:	00000098 	muleq	r0, r8, r0
	...
  40:	0000001c 	andeq	r0, r0, ip, lsl r0
  44:	01a90002 			; <UNDEFINED> instruction: 0x01a90002
  48:	00040000 	andeq	r0, r4, r0
  4c:	00000000 	andeq	r0, r0, r0
  50:	00008110 	andeq	r8, r0, r0, lsl r1
  54:	00000134 	andeq	r0, r0, r4, lsr r1
	...
  60:	0000001c 	andeq	r0, r0, ip, lsl r0
  64:	02810002 	addeq	r0, r1, #2
  68:	00040000 	andeq	r0, r4, r0
  6c:	00000000 	andeq	r0, r0, r0
  70:	00008244 	andeq	r8, r0, r4, asr #4
  74:	00000300 	andeq	r0, r0, r0, lsl #6
	...
  80:	0000001c 	andeq	r0, r0, ip, lsl r0
  84:	04580002 	ldrbeq	r0, [r8], #-2
  88:	00040000 	andeq	r0, r4, r0
  8c:	00000000 	andeq	r0, r0, r0
  90:	00008544 	andeq	r8, r0, r4, asr #10
  94:	0000004c 	andeq	r0, r0, ip, asr #32
	...
  a0:	0000001c 	andeq	r0, r0, ip, lsl r0
  a4:	05580002 	ldrbeq	r0, [r8, #-2]
  a8:	00040000 	andeq	r0, r4, r0
  ac:	00000000 	andeq	r0, r0, r0
  b0:	00008590 	muleq	r0, r0, r5
  b4:	00000200 	andeq	r0, r0, r0, lsl #4
	...

Disassembly of section .debug_loc:

00000000 <.debug_loc>:
   0:	00000000 	andeq	r0, r0, r0
   4:	00000004 	andeq	r0, r0, r4
   8:	007d0002 	rsbseq	r0, sp, r2
   c:	00000004 	andeq	r0, r0, r4
  10:	0000001c 	andeq	r0, r0, ip, lsl r0
  14:	087d0002 	ldmdaeq	sp!, {r1}^
	...
  20:	0000001c 	andeq	r0, r0, ip, lsl r0
  24:	00000020 	andeq	r0, r0, r0, lsr #32
  28:	007d0002 	rsbseq	r0, sp, r2
  2c:	00000020 	andeq	r0, r0, r0, lsr #32
  30:	00000040 	andeq	r0, r0, r0, asr #32
  34:	087d0002 	ldmdaeq	sp!, {r1}^
	...
  40:	00000040 	andeq	r0, r0, r0, asr #32
  44:	00000044 	andeq	r0, r0, r4, asr #32
  48:	007d0002 	rsbseq	r0, sp, r2
  4c:	00000044 	andeq	r0, r0, r4, asr #32
  50:	00000098 	muleq	r0, r8, r0
  54:	087d0002 	ldmdaeq	sp!, {r1}^
	...
  64:	00000004 	andeq	r0, r0, r4
  68:	007d0002 	rsbseq	r0, sp, r2
  6c:	00000004 	andeq	r0, r0, r4
  70:	00000018 	andeq	r0, r0, r8, lsl r0
  74:	087d0002 	ldmdaeq	sp!, {r1}^
	...
  80:	00000018 	andeq	r0, r0, r8, lsl r0
  84:	0000001c 	andeq	r0, r0, ip, lsl r0
  88:	007d0002 	rsbseq	r0, sp, r2
  8c:	0000001c 	andeq	r0, r0, ip, lsl r0
  90:	00000030 	andeq	r0, r0, r0, lsr r0
  94:	087d0002 	ldmdaeq	sp!, {r1}^
	...
  a0:	00000030 	andeq	r0, r0, r0, lsr r0
  a4:	00000034 	andeq	r0, r0, r4, lsr r0
  a8:	007d0002 	rsbseq	r0, sp, r2
  ac:	00000034 	andeq	r0, r0, r4, lsr r0
  b0:	00000038 	andeq	r0, r0, r8, lsr r0
  b4:	047d0002 	ldrbteq	r0, [sp], #-2
  b8:	00000038 	andeq	r0, r0, r8, lsr r0
  bc:	00000070 	andeq	r0, r0, r0, ror r0
  c0:	107d0002 	rsbsne	r0, sp, r2
	...
  cc:	00000070 	andeq	r0, r0, r0, ror r0
  d0:	00000074 	andeq	r0, r0, r4, ror r0
  d4:	007d0002 	rsbseq	r0, sp, r2
  d8:	00000074 	andeq	r0, r0, r4, ror r0
  dc:	00000088 	andeq	r0, r0, r8, lsl #1
  e0:	087d0002 	ldmdaeq	sp!, {r1}^
	...
  ec:	00000088 	andeq	r0, r0, r8, lsl #1
  f0:	0000008c 	andeq	r0, r0, ip, lsl #1
  f4:	007d0002 	rsbseq	r0, sp, r2
  f8:	0000008c 	andeq	r0, r0, ip, lsl #1
  fc:	000000a0 	andeq	r0, r0, r0, lsr #1
 100:	087d0002 	ldmdaeq	sp!, {r1}^
	...
 10c:	000000a0 	andeq	r0, r0, r0, lsr #1
 110:	000000a4 	andeq	r0, r0, r4, lsr #1
 114:	007d0002 	rsbseq	r0, sp, r2
 118:	000000a4 	andeq	r0, r0, r4, lsr #1
 11c:	000000a8 	andeq	r0, r0, r8, lsr #1
 120:	047d0002 	ldrbteq	r0, [sp], #-2
 124:	000000a8 	andeq	r0, r0, r8, lsr #1
 128:	00000134 	andeq	r0, r0, r4, lsr r1
 12c:	107d0002 	rsbsne	r0, sp, r2
	...
 13c:	00000004 	andeq	r0, r0, r4
 140:	007d0002 	rsbseq	r0, sp, r2
 144:	00000004 	andeq	r0, r0, r4
 148:	00000008 	andeq	r0, r0, r8
 14c:	047d0002 	ldrbteq	r0, [sp], #-2
 150:	00000008 	andeq	r0, r0, r8
 154:	00000148 	andeq	r0, r0, r8, asr #2
 158:	207d0002 	rsbscs	r0, sp, r2
	...
 164:	00000148 	andeq	r0, r0, r8, asr #2
 168:	0000014c 	andeq	r0, r0, ip, asr #2
 16c:	007d0002 	rsbseq	r0, sp, r2
 170:	0000014c 	andeq	r0, r0, ip, asr #2
 174:	00000150 	andeq	r0, r0, r0, asr r1
 178:	047d0002 	ldrbteq	r0, [sp], #-2
 17c:	00000150 	andeq	r0, r0, r0, asr r1
 180:	000001a0 	andeq	r0, r0, r0, lsr #3
 184:	107d0002 	rsbsne	r0, sp, r2
	...
 190:	000001a0 	andeq	r0, r0, r0, lsr #3
 194:	000001a4 	andeq	r0, r0, r4, lsr #3
 198:	007d0002 	rsbseq	r0, sp, r2
 19c:	000001a4 	andeq	r0, r0, r4, lsr #3
 1a0:	00000220 	andeq	r0, r0, r0, lsr #4
 1a4:	087d0002 	ldmdaeq	sp!, {r1}^
	...
 1b0:	00000220 	andeq	r0, r0, r0, lsr #4
 1b4:	00000224 	andeq	r0, r0, r4, lsr #4
 1b8:	007d0002 	rsbseq	r0, sp, r2
 1bc:	00000224 	andeq	r0, r0, r4, lsr #4
 1c0:	000002c4 	andeq	r0, r0, r4, asr #5
 1c4:	087d0002 	ldmdaeq	sp!, {r1}^
	...
 1d0:	000002c4 	andeq	r0, r0, r4, asr #5
 1d4:	000002c8 	andeq	r0, r0, r8, asr #5
 1d8:	007d0002 	rsbseq	r0, sp, r2
 1dc:	000002c8 	andeq	r0, r0, r8, asr #5
 1e0:	00000300 	andeq	r0, r0, r0, lsl #6
 1e4:	087d0002 	ldmdaeq	sp!, {r1}^
	...
 1f4:	00000004 	andeq	r0, r0, r4
 1f8:	007d0002 	rsbseq	r0, sp, r2
 1fc:	00000004 	andeq	r0, r0, r4
 200:	00000008 	andeq	r0, r0, r8
 204:	047d0002 	ldrbteq	r0, [sp], #-2
 208:	00000008 	andeq	r0, r0, r8
 20c:	0000004c 	andeq	r0, r0, ip, asr #32
 210:	187d0002 	ldmdane	sp!, {r1}^
	...
 220:	00000004 	andeq	r0, r0, r4
 224:	007d0002 	rsbseq	r0, sp, r2
 228:	00000004 	andeq	r0, r0, r4
 22c:	00000200 	andeq	r0, r0, r0, lsl #4
 230:	087d0002 	ldmdaeq	sp!, {r1}^
	...

Disassembly of section .debug_str:

00000000 <.debug_str>:
   0:	6d746f6e 	ldclvs	15, cr6, [r4, #-440]!	; 0xfffffe48
   4:	2e6e6961 	cdpcs	9, 6, cr6, cr14, cr1, {3}
   8:	6f6e0063 	svcvs	0x006e0063
   c:	69616d74 	stmdbvs	r1!, {r2, r4, r5, r6, r8, sl, fp, sp, lr}^
  10:	7463006e 	strbtvc	r0, [r3], #-110	; 0x6e
  14:	00735f78 	rsbseq	r5, r3, r8, ror pc
  18:	69736e75 	ldmdbvs	r3!, {r0, r2, r4, r5, r6, r9, sl, fp, sp, lr}^
  1c:	64656e67 	strbtvs	r6, [r5], #-3687	; 0xe67
  20:	61686320 	cmnvs	r8, r0, lsr #6
  24:	68730072 	ldmdavs	r3!, {r1, r4, r5, r6}^
  28:	2074726f 	rsbscs	r7, r4, pc, ror #4
  2c:	69736e75 	ldmdbvs	r3!, {r0, r2, r4, r5, r6, r9, sl, fp, sp, lr}^
  30:	64656e67 	strbtvs	r6, [r5], #-3687	; 0xe67
  34:	746e6920 	strbtvc	r6, [lr], #-2336	; 0x920
  38:	6e697000 	cdpvs	0, 6, cr7, cr9, cr0, {0}
  3c:	6f700067 	svcvs	0x00700067
  40:	6c00676e 	stcvs	7, cr6, [r0], {110}	; 0x6e
  44:	20676e6f 	rsbcs	r6, r7, pc, ror #28
  48:	676e6f6c 	strbvs	r6, [lr, -ip, ror #30]!
  4c:	736e7520 	cmnvc	lr, #134217728	; 0x8000000
  50:	656e6769 	strbvs	r6, [lr, #-1897]!	; 0x769
  54:	6e692064 	cdpvs	0, 6, cr2, cr9, cr4, {3}
  58:	682f0074 	stmdavs	pc!, {r2, r4, r5, r6}	; <UNPREDICTABLE>
  5c:	2f656d6f 	svccs	0x00656d6f
  60:	6775646a 	ldrbvs	r6, [r5, -sl, ror #8]!
  64:	342f6575 	strtcc	r6, [pc], #-1397	; 6c <_start-0x7f94>
  68:	612f4649 	teqvs	pc, r9, asr #12
  6c:	69686372 	stmdbvs	r8!, {r1, r4, r5, r6, r8, r9, sp, lr}^
  70:	726f2f31 	rsbvc	r2, pc, #196	; 0xc4
  74:	6e6e6f64 	cdpvs	15, 6, cr6, cr14, cr4, {3}
  78:	65636e61 	strbvs	r6, [r3, #-3681]!	; 0xe61
  7c:	746e656d 	strbtvc	r6, [lr], #-1389	; 0x56d
  80:	6c6f635f 	stclvs	3, cr6, [pc], #-380	; ffffff0c <_bss_end+0xffff5f0c>
  84:	6f62616c 	svcvs	0x0062616c
  88:	69746172 	ldmdbvs	r4!, {r1, r4, r5, r6, r8, sp, lr}^
  8c:	6f6c0066 	svcvs	0x006c0066
  90:	6c20676e 	stcvs	7, cr6, [r0], #-440	; 0xfffffe48
  94:	20676e6f 	rsbcs	r6, r7, pc, ror #28
  98:	00746e69 	rsbseq	r6, r4, r9, ror #28
  9c:	72727563 	rsbsvc	r7, r2, #415236096	; 0x18c00000
  a0:	5f746e65 	svcpl	0x00746e65
  a4:	00787463 	rsbseq	r7, r8, r3, ror #8
  a8:	20554e47 	subscs	r4, r5, r7, asr #28
  ac:	2e342043 	cdpcs	0, 3, cr2, cr4, cr3, {2}
  b0:	00312e37 	eorseq	r2, r1, r7, lsr lr
  b4:	726f6873 	rsbvc	r6, pc, #7536640	; 0x730000
  b8:	6e692074 	mcrvs	0, 3, r2, cr9, cr4, {3}
  bc:	74630074 	strbtvc	r0, [r3], #-116	; 0x74
  c0:	6e695f78 	mcrvs	15, 3, r5, cr9, cr8, {3}
  c4:	75007469 	strvc	r7, [r0, #-1129]	; 0x469
  c8:	33746e69 	cmncc	r4, #1680	; 0x690
  cc:	00745f32 	rsbseq	r5, r4, r2, lsr pc
  d0:	5f787463 	svcpl	0x00787463
  d4:	74630041 	strbtvc	r0, [r3], #-65	; 0x41
  d8:	00425f78 	subeq	r5, r2, r8, ror pc
  dc:	61736964 	cmnvs	r3, r4, ror #18
  e0:	5f656c62 	svcpl	0x00656c62
  e4:	656d6974 	strbvs	r6, [sp, #-2420]!	; 0x974
  e8:	72695f72 	rsbvc	r5, r9, #456	; 0x1c8
  ec:	77680071 			; <UNDEFINED> instruction: 0x77680071
  f0:	6c00632e 	stcvs	3, cr6, [r0], {46}	; 0x2e
  f4:	6f5f6465 	svcvs	0x005f6465
  f8:	6e69006e 	cdpvs	0, 6, cr0, cr9, cr14, {3}
  fc:	685f7469 	ldmdavs	pc, {r0, r3, r5, r6, sl, ip, sp, lr}^	; <UNPREDICTABLE>
 100:	65730077 	ldrbvs	r0, [r3, #-119]!	; 0x77
 104:	656e5f74 	strbvs	r5, [lr, #-3956]!	; 0xf74
 108:	745f7478 	ldrbvc	r7, [pc], #-1144	; 110 <_start-0x7ef0>
 10c:	5f6b6369 	svcpl	0x006b6369
 110:	5f646e61 	svcpl	0x00646e61
 114:	62616e65 	rsbvs	r6, r1, #1616	; 0x650
 118:	745f656c 	ldrbvc	r6, [pc], #-1388	; 120 <_start-0x7ee0>
 11c:	72656d69 	rsbvc	r6, r5, #6720	; 0x1a40
 120:	7172695f 	cmnvc	r2, pc, asr r9
 124:	64656c00 	strbtvs	r6, [r5], #-3072	; 0xc00
 128:	66666f5f 	uqsaxvs	r6, r6, pc	; <UNPREDICTABLE>
 12c:	6d656d00 	stclvs	13, cr6, [r5, #-0]
 130:	5f79726f 	svcpl	0x0079726f
 134:	6d656c65 	stclvs	12, cr6, [r5, #-404]!	; 0xfffffe6c
 138:	5f746e65 	svcpl	0x00746e65
 13c:	73690074 	cmnvc	r9, #116	; 0x74
 140:	74696e49 	strbtvc	r6, [r9], #-3657	; 0xe49
 144:	696c6169 	stmdbvs	ip!, {r0, r3, r5, r6, r8, sp, lr}^
 148:	00646573 	rsbeq	r6, r4, r3, ror r5
 14c:	65657246 	strbvs	r7, [r5, #-582]!	; 0x246
 150:	6f6c6c41 	svcvs	0x006c6c41
 154:	65746163 	ldrbvs	r6, [r4, #-355]!	; 0x163
 158:	6d654d64 	stclvs	13, cr4, [r5, #-400]!	; 0xfffffe70
 15c:	0079726f 	rsbseq	r7, r9, pc, ror #4
 160:	6f6c6c41 	svcvs	0x006c6c41
 164:	65746163 	ldrbvs	r6, [r4, #-355]!	; 0x163
 168:	6f6d654d 	svcvs	0x006d654d
 16c:	63007972 	movwvs	r7, #2418	; 0x972
 170:	61636e6f 	cmnvs	r3, pc, ror #28
 174:	616e6574 	smcvs	58964	; 0xe654
 178:	72466574 	subvc	r6, r6, #486539264	; 0x1d000000
 17c:	6c426565 	cfstr64vs	mvdx6, [r2], {101}	; 0x65
 180:	736b636f 	cmnvc	fp, #-1140850687	; 0xbc000001
 184:	6c6c6100 	stfvse	f6, [ip], #-0
 188:	7461636f 	strbtvc	r6, [r1], #-879	; 0x36f
 18c:	6d654d65 	stclvs	13, cr4, [r5, #-404]!	; 0xfffffe6c
 190:	2e79726f 	cdpcs	2, 7, cr7, cr9, cr15, {3}
 194:	72630063 	rsbvc	r0, r3, #99	; 0x63
 198:	65746165 	ldrbvs	r6, [r4, #-357]!	; 0x165
 19c:	64616548 	strbtvs	r6, [r1], #-1352	; 0x548
 1a0:	73007265 	movwvc	r7, #613	; 0x265
 1a4:	4f657a69 	svcmi	0x00657a69
 1a8:	65724666 	ldrbvs	r4, [r2, #-1638]!	; 0x666
 1ac:	61705365 	cmnvs	r0, r5, ror #6
 1b0:	61006563 	tstvs	r0, r3, ror #10
 1b4:	65726464 	ldrbvs	r6, [r2, #-1124]!	; 0x464
 1b8:	68007373 	stmdavs	r0, {r0, r1, r4, r5, r6, r8, r9, ip, sp, lr}
 1bc:	00706165 	rsbseq	r6, r0, r5, ror #2
 1c0:	657a6973 	ldrbvs	r6, [sl, #-2419]!	; 0x973
 1c4:	65707974 	ldrbvs	r7, [r0, #-2420]!	; 0x974
 1c8:	61656800 	cmnvs	r5, r0, lsl #16
 1cc:	4e726564 	cdpmi	5, 7, cr6, cr2, cr4, {3}
 1d0:	50747865 	rsbspl	r7, r4, r5, ror #16
 1d4:	746e696f 	strbtvc	r6, [lr], #-2415	; 0x96f
 1d8:	63007265 	movwvs	r7, #613	; 0x265
 1dc:	74616572 	strbtvc	r6, [r1], #-1394	; 0x572
 1e0:	696e4965 	stmdbvs	lr!, {r0, r2, r5, r6, r8, fp, lr}^
 1e4:	6c616974 	stclvs	9, cr6, [r1], #-464	; 0xfffffe30
 1e8:	64616548 	strbtvs	r6, [r1], #-1352	; 0x548
 1ec:	69007265 	stmdbvs	r0, {r0, r2, r5, r6, r9, ip, sp, lr}
 1f0:	756f4673 	strbvc	r4, [pc, #-1651]!	; fffffb85 <_bss_end+0xffff5b85>
 1f4:	6900646e 	stmdbvs	r0, {r1, r2, r3, r5, r6, sl, sp, lr}
 1f8:	5f74696e 	svcpl	0x0074696e
 1fc:	00787463 	rsbseq	r7, r8, r3, ror #8
 200:	636e7566 	cmnvs	lr, #427819008	; 0x19800000
 204:	7000745f 	andvc	r7, r0, pc, asr r4
 208:	65636f72 	strbvs	r6, [r3, #-3954]!	; 0xf72
 20c:	632e7373 	teqvs	lr, #-872415231	; 0xcc000001
 210:	61747300 	cmnvs	r4, r0, lsl #6
 214:	735f6b63 	cmpvc	pc, #101376	; 0x18c00
 218:	00657a69 	rsbeq	r7, r5, r9, ror #20
 21c:	6d6f682f 	stclvs	8, cr6, [pc, #-188]!	; 168 <_start-0x7e98>
 220:	68742f65 	ldmdavs	r4!, {r0, r2, r5, r6, r8, r9, sl, fp, sp}^
 224:	73656c65 	cmnvc	r5, #25856	; 0x6500
 228:	78756562 	ldmdavc	r5!, {r1, r5, r6, r8, sl, sp, lr}^
 22c:	636f442f 	cmnvs	pc, #788529152	; 0x2f000000
 230:	6e656d75 	mcrvs	13, 3, r6, cr5, cr5, {3}
 234:	6d2f7374 	stcvs	3, cr7, [pc, #-464]!	; 6c <_start-0x7f94>
 238:	2d696e69 	stclcs	14, cr6, [r9, #-420]!	; 0xfffffe5c
 23c:	522d534f 	eorpl	r5, sp, #1006632961	; 0x3c000001
 240:	6f2f4950 	svcvs	0x002f4950
 244:	6e6f6472 	mcrvs	4, 3, r6, cr15, cr2, {3}
 248:	636e616e 	cmnvs	lr, #-2147483621	; 0x8000001b
 24c:	6e656d65 	cdpvs	13, 6, cr6, cr5, cr5, {3}
 250:	6f635f74 	svcvs	0x00635f74
 254:	62616c6c 	rsbvs	r6, r1, #27648	; 0x6c00
 258:	7461726f 	strbtvc	r7, [r1], #-623	; 0x26f
 25c:	64006669 	strvs	r6, [r0], #-1641	; 0x669
 260:	61707369 	cmnvs	r0, r9, ror #6
 264:	65686374 	strbvs	r6, [r8, #-884]!	; 0x374
 268:	00632e72 	rsbeq	r2, r3, r2, ror lr
 26c:	69676572 	stmdbvs	r7!, {r1, r4, r5, r6, r8, sl, sp, lr}^
 270:	65727473 	ldrbvs	r7, [r2, #-1139]!	; 0x473
 274:	77730073 			; <UNDEFINED> instruction: 0x77730073
 278:	68637469 	stmdavs	r3!, {r0, r3, r5, r6, sl, ip, sp, lr}^
 27c:	006f745f 	rsbeq	r7, pc, pc, asr r4	; <UNPREDICTABLE>

Disassembly of section .debug_frame:

00000000 <.debug_frame>:
   0:	0000000c 	andeq	r0, r0, ip
   4:	ffffffff 			; <UNDEFINED> instruction: 0xffffffff
   8:	7c020001 	stcvc	0, cr0, [r2], {1}
   c:	000d0c0e 	andeq	r0, sp, lr, lsl #24
  10:	00000014 	andeq	r0, r0, r4, lsl r0
  14:	00000000 	andeq	r0, r0, r0
  18:	00008078 	andeq	r8, r0, r8, ror r0
  1c:	0000001c 	andeq	r0, r0, ip, lsl r0
  20:	83080e42 	movwhi	r0, #36418	; 0x8e42
  24:	00018e02 	andeq	r8, r1, r2, lsl #28
  28:	00000014 	andeq	r0, r0, r4, lsl r0
  2c:	00000000 	andeq	r0, r0, r0
  30:	00008094 	muleq	r0, r4, r0
  34:	00000024 	andeq	r0, r0, r4, lsr #32
  38:	83080e42 	movwhi	r0, #36418	; 0x8e42
  3c:	00018e02 	andeq	r8, r1, r2, lsl #28
  40:	00000014 	andeq	r0, r0, r4, lsl r0
  44:	00000000 	andeq	r0, r0, r0
  48:	000080b8 	strheq	r8, [r0], -r8	; <UNPREDICTABLE>
  4c:	00000058 	andeq	r0, r0, r8, asr r0
  50:	83080e42 	movwhi	r0, #36418	; 0x8e42
  54:	00018e02 	andeq	r8, r1, r2, lsl #28
  58:	0000000c 	andeq	r0, r0, ip
  5c:	ffffffff 			; <UNDEFINED> instruction: 0xffffffff
  60:	7c020001 	stcvc	0, cr0, [r2], {1}
  64:	000d0c0e 	andeq	r0, sp, lr, lsl #24
  68:	00000014 	andeq	r0, r0, r4, lsl r0
  6c:	00000058 	andeq	r0, r0, r8, asr r0
  70:	00008110 	andeq	r8, r0, r0, lsl r1
  74:	00000018 	andeq	r0, r0, r8, lsl r0
  78:	83080e42 	movwhi	r0, #36418	; 0x8e42
  7c:	00018e02 	andeq	r8, r1, r2, lsl #28
  80:	00000014 	andeq	r0, r0, r4, lsl r0
  84:	00000058 	andeq	r0, r0, r8, asr r0
  88:	00008128 	andeq	r8, r0, r8, lsr #2
  8c:	00000018 	andeq	r0, r0, r8, lsl r0
  90:	83080e42 	movwhi	r0, #36418	; 0x8e42
  94:	00018e02 	andeq	r8, r1, r2, lsl #28
  98:	00000014 	andeq	r0, r0, r4, lsl r0
  9c:	00000058 	andeq	r0, r0, r8, asr r0
  a0:	00008140 	andeq	r8, r0, r0, asr #2
  a4:	00000040 	andeq	r0, r0, r0, asr #32
  a8:	8e040e42 	cdphi	14, 0, cr0, cr4, cr2, {2}
  ac:	100e4201 	andne	r4, lr, r1, lsl #4
  b0:	00000014 	andeq	r0, r0, r4, lsl r0
  b4:	00000058 	andeq	r0, r0, r8, asr r0
  b8:	00008180 	andeq	r8, r0, r0, lsl #3
  bc:	00000018 	andeq	r0, r0, r8, lsl r0
  c0:	83080e42 	movwhi	r0, #36418	; 0x8e42
  c4:	00018e02 	andeq	r8, r1, r2, lsl #28
  c8:	00000014 	andeq	r0, r0, r4, lsl r0
  cc:	00000058 	andeq	r0, r0, r8, asr r0
  d0:	00008198 	muleq	r0, r8, r1
  d4:	00000018 	andeq	r0, r0, r8, lsl r0
  d8:	83080e42 	movwhi	r0, #36418	; 0x8e42
  dc:	00018e02 	andeq	r8, r1, r2, lsl #28
  e0:	00000014 	andeq	r0, r0, r4, lsl r0
  e4:	00000058 	andeq	r0, r0, r8, asr r0
  e8:	000081b0 			; <UNDEFINED> instruction: 0x000081b0
  ec:	00000094 	muleq	r0, r4, r0
  f0:	8e040e42 	cdphi	14, 0, cr0, cr4, cr2, {2}
  f4:	100e4201 	andne	r4, lr, r1, lsl #4
  f8:	0000000c 	andeq	r0, r0, ip
  fc:	ffffffff 			; <UNDEFINED> instruction: 0xffffffff
 100:	7c020001 	stcvc	0, cr0, [r2], {1}
 104:	000d0c0e 	andeq	r0, sp, lr, lsl #24
 108:	00000014 	andeq	r0, r0, r4, lsl r0
 10c:	000000f8 	strdeq	r0, [r0], -r8
 110:	00008244 	andeq	r8, r0, r4, asr #4
 114:	00000148 	andeq	r0, r0, r8, asr #2
 118:	8e040e42 	cdphi	14, 0, cr0, cr4, cr2, {2}
 11c:	200e4201 	andcs	r4, lr, r1, lsl #4
 120:	00000014 	andeq	r0, r0, r4, lsl r0
 124:	000000f8 	strdeq	r0, [r0], -r8
 128:	0000838c 	andeq	r8, r0, ip, lsl #7
 12c:	00000058 	andeq	r0, r0, r8, asr r0
 130:	8e040e42 	cdphi	14, 0, cr0, cr4, cr2, {2}
 134:	100e4201 	andne	r4, lr, r1, lsl #4
 138:	00000010 	andeq	r0, r0, r0, lsl r0
 13c:	000000f8 	strdeq	r0, [r0], -r8
 140:	000083e4 	andeq	r8, r0, r4, ror #7
 144:	00000080 	andeq	r0, r0, r0, lsl #1
 148:	00080e42 	andeq	r0, r8, r2, asr #28
 14c:	00000010 	andeq	r0, r0, r0, lsl r0
 150:	000000f8 	strdeq	r0, [r0], -r8
 154:	00008464 	andeq	r8, r0, r4, ror #8
 158:	000000a4 	andeq	r0, r0, r4, lsr #1
 15c:	00080e42 	andeq	r0, r8, r2, asr #28
 160:	00000010 	andeq	r0, r0, r0, lsl r0
 164:	000000f8 	strdeq	r0, [r0], -r8
 168:	00008508 	andeq	r8, r0, r8, lsl #10
 16c:	0000003c 	andeq	r0, r0, ip, lsr r0
 170:	00080e42 	andeq	r0, r8, r2, asr #28
 174:	0000000c 	andeq	r0, r0, ip
 178:	ffffffff 			; <UNDEFINED> instruction: 0xffffffff
 17c:	7c020001 	stcvc	0, cr0, [r2], {1}
 180:	000d0c0e 	andeq	r0, sp, lr, lsl #24
 184:	00000014 	andeq	r0, r0, r4, lsl r0
 188:	00000174 	andeq	r0, r0, r4, ror r1
 18c:	00008544 	andeq	r8, r0, r4, asr #10
 190:	0000004c 	andeq	r0, r0, ip, asr #32
 194:	8e040e42 	cdphi	14, 0, cr0, cr4, cr2, {2}
 198:	180e4201 	stmdane	lr, {r0, r9, lr}
 19c:	0000000c 	andeq	r0, r0, ip
 1a0:	ffffffff 			; <UNDEFINED> instruction: 0xffffffff
 1a4:	7c020001 	stcvc	0, cr0, [r2], {1}
 1a8:	000d0c0e 	andeq	r0, sp, lr, lsl #24
 1ac:	00000010 	andeq	r0, r0, r0, lsl r0
 1b0:	0000019c 	muleq	r0, ip, r1
 1b4:	00008590 	muleq	r0, r0, r5
 1b8:	00000200 	andeq	r0, r0, r0, lsl #4
 1bc:	00080e42 	andeq	r0, r8, r2, asr #28

Disassembly of section .debug_ranges:

00000000 <.debug_ranges>:
   0:	0000006c 	andeq	r0, r0, ip, rrx
   4:	000000e4 	andeq	r0, r0, r4, ror #1
   8:	00000110 	andeq	r0, r0, r0, lsl r1
   c:	00000114 	andeq	r0, r0, r4, lsl r1
	...
